################################################################################
#                                                                              #
#      IAR Universal Linker V6.4.6.89                                          #
#                                                                              #
#           Link time     =  05/Nov/2025  10:25:31                             #
#           Target CPU    =  x51                                               #
#           List file     =  E:\实验室Start\TrajectoryCompression\Serf_Embedde #
#                            d\Debug\List\serf-all.map                         #
#           Output file 1 =  E:\实验室Start\TrajectoryCompression\Serf_Embedde #
#                            d\Debug\Exe\serf-all.a51                          #
#                            Format: intel-extended                            #
#           Output file 2 =  E:\实验室Start\TrajectoryCompression\Serf_Embedde #
#                            d\Debug\Exe\serf-all.d51                          #
#                            Format: ubrof10                                   #
#                            UBROF version 10.0.6                              #
#                            Using library modules for C-SPY (-rt)             #
#           Command line  =  -f                                                #
#                            C:\Users\zqq666\AppData\Local\Temp\EWAF98.tmp     #
#                            (E:\实验室Start\TrajectoryCompression\Serf_Embedd #
#                            ed\Debug\Obj\elias_gamma_codec.r51                #
#                            E:\实验室Start\TrajectoryCompression\Serf_Embedde #
#                            d\Debug\Obj\file_reader.r51                       #
#                            E:\实验室Start\TrajectoryCompression\Serf_Embedde #
#                            d\Debug\Obj\iar_serf_test.r51                     #
#                            E:\实验室Start\TrajectoryCompression\Serf_Embedde #
#                            d\Debug\Obj\input_bit_stream.r51                  #
#                            E:\实验室Start\TrajectoryCompression\Serf_Embedde #
#                            d\Debug\Obj\net_serf_qt_compressor.r51            #
#                            E:\实验室Start\TrajectoryCompression\Serf_Embedde #
#                            d\Debug\Obj\net_serf_qt_decompressor.r51          #
#                            E:\实验室Start\TrajectoryCompression\Serf_Embedde #
#                            d\Debug\Obj\output_bit_stream.r51                 #
#                            E:\实验室Start\TrajectoryCompression\Serf_Embedde #
#                            d\Debug\Obj\serf_qt_compressor.r51                #
#                            E:\实验室Start\TrajectoryCompression\Serf_Embedde #
#                            d\Debug\Obj\serf_qt_decompressor.r51              #
#                            -o                                                #
#                            E:\实验室Start\TrajectoryCompression\Serf_Embedde #
#                            d\Debug\Exe\serf-all.d51                          #
#                            -l                                                #
#                            E:\实验室Start\TrajectoryCompression\Serf_Embedde #
#                            d\Debug\List\serf-all.map                         #
#                            -xms -IE:\实验室Start\IAR\8051\LIB\ -f            #
#                            "E:\实验室Start\IAR\8051\config\devices\Texas Ins #
#                            truments\lnk51ew_cc2530F256_banked.xcl"           #
#                            (-D_IDATA0_START=0x00 -D_IDATA0_END=0xFF          #
#                            -D_PDATA0_START=0x1E00 -D_PDATA0_END=0x1EFF       #
#                            -D_IXDATA0_START=0x0001 -D_IXDATA0_END=0x1EFF     #
#                            -D_XDATA0_START=_IXDATA0_START                    #
#                            -D_XDATA0_END=_IXDATA0_END                        #
#                            -D_NEAR_CODE_START=0x0000                         #
#                            -D_FIRST_BANK_ADDR=0x10000 -D?REGISTER_BANK=0x0   #
#                            -D_REGISTER_BANK_START=0x0 -D_BREG_START=0x00     #
#                            -D?VB=0x20 -Z(BIT)BREG=_BREG_START                #
#                            -Z(BIT)BIT_N=0-7F                                 #
#                            -Z(DATA)REGISTERS+8=_REGISTER_BANK_START          #
#                            -Z(DATA)BDATA_Z,BDATA_N,BDATA_I=20-2F             #
#                            -Z(DATA)VREG=08-7F -Z(DATA)PSP,XSP=08-7F          #
#                            -Z(DATA)DOVERLAY=08-7F                            #
#                            -Z(DATA)DATA_I,DATA_Z,DATA_N=08-7F                #
#                            -U(IDATA)0-7F=(DATA)0-7F                          #
#                            -Z(IDATA)IDATA_I,IDATA_Z,IDATA_N=08-_IDATA0_END   #
#                            -Z(IDATA)ISTACK+_IDATA_STACK_SIZE#08-_IDATA0_END  #
#                            -Z(IDATA)IOVERLAY=08-FF -Z(CODE)INTVEC=0          #
#                            -Z(CODE)CSTART=_NEAR_CODE_START-(_CODEBANK_START- #
#                            1)                                                #
#                            -Z(CODE)BIT_ID,BDATA_ID,DATA_ID,IDATA_ID,IXDATA_I #
#                            D,PDATA_ID,XDATA_ID=_NEAR_CODE_START-(_CODEBANK_S #
#                            TART-1)                                           #
#                            -Z(CODE)BANK_RELAYS,RCODE,DIFUNCT,CODE_C,CODE_N,N #
#                            EAR_CODE=_NEAR_CODE_START-(_CODEBANK_START-1)     #
#                            -P(CODE)BANKED_CODE=_NEAR_CODE_START-(_CODEBANK_S #
#                            TART-1),[(_CODEBANK_START+_FIRST_BANK_ADDR)-(_COD #
#                            EBANK_END+_FIRST_BANK_ADDR)]*_NR_OF_BANKS+10000   #
#                            -Z(CODE)CHECKSUM#(_CODEBANK_START-1)              #
#                            -Z(XDATA)PDATA_Z,PDATA_I=_PDATA0_START-_PDATA0_EN #
#                            D                                                 #
#                            -P(XDATA)PDATA_N=_PDATA0_START-_PDATA0_END        #
#                            -Z(XDATA)PSTACK+_PDATA_STACK_SIZE=_PDATA0_START-_ #
#                            PDATA0_END                                        #
#                            -Z(XDATA)EXT_STACK+_EXTENDED_STACK_SIZE=_EXTENDED #
#                            _STACK_START                                      #
#                            -Z(XDATA)XSTACK+_XDATA_STACK_SIZE=_XDATA0_START-_ #
#                            XDATA0_END                                        #
#                            -Z(XDATA)IXDATA_Z,IXDATA_I=_IXDATA0_START-_IXDATA #
#                            0_END                                             #
#                            -P(XDATA)IXDATA_N=_IXDATA0_START-_IXDATA0_END     #
#                            -Z(XDATA)XDATA_Z,XDATA_I=_XDATA0_START-_XDATA0_EN #
#                            D                                                 #
#                            -P(XDATA)XDATA_N=_XDATA0_START-_XDATA0_END        #
#                            -Z(XDATA)XDATA_HEAP+_XDATA_HEAP_SIZE=_XDATA0_STAR #
#                            T-_XDATA0_END                                     #
#                            -Z(CONST)XDATA_ROM_C=_XDATA0_START-_XDATA0_END    #
#                            -cx51                                             #
#                            -M(CODE)[(_CODEBANK_START+_FIRST_BANK_ADDR)-(_COD #
#                            EBANK_END+_FIRST_BANK_ADDR)]*_NR_OF_BANKS+0x10000 #
#                            =0x8000                                           #
#                            -ww69=i -D_BANK0_START=0x00000                    #
#                            -D_BANK0_END=0x07FFF -D_BANK1_START=0x18000       #
#                            -D_BANK1_END=0x1FFFF -D_BANK2_START=0x28000       #
#                            -D_BANK2_END=0x2FFFF -D_BANK3_START=0x38000       #
#                            -D_BANK3_END=0x3FFFF -D_BANK4_START=0x48000       #
#                            -D_BANK4_END=0x4FFFF -D_BANK5_START=0x58000       #
#                            -D_BANK5_END=0x5FFFF -D_BANK6_START=0x68000       #
#                            -D_BANK6_END=0x6FFFF -D_BANK7_START=0x78000       #
#                            -D_BANK7_END=0x7FFFF                              #
#                            -P(CODE)BANK0=_BANK0_START-_BANK0_END             #
#                            -P(CODE)BANK1=_BANK1_START-_BANK1_END             #
#                            -P(CODE)BANK2=_BANK2_START-_BANK2_END             #
#                            -P(CODE)BANK3=_BANK3_START-_BANK3_END             #
#                            -P(CODE)BANK4=_BANK4_START-_BANK4_END             #
#                            -P(CODE)BANK5=_BANK5_START-_BANK5_END             #
#                            -P(CODE)BANK6=_BANK6_START-_BANK6_END             #
#                            -P(CODE)BANK7=_BANK7_START-_BANK7_END             #
#                            -D_FLASH_LOCK_BITS_START=0x7FFF0                  #
#                            -D_FLASH_LOCK_BITS_END=0x7FFFF                    #
#                            -Z(CODE)FLASH_LOCK_BITS=_FLASH_LOCK_BITS_START-_F #
#                            LASH_LOCK_BITS_END                                #
#                            -U(CODE)0x0000=(CODE)_FLASH_LOCK_BITS_START-_FLAS #
#                            H_LOCK_BITS_END)                                  #
#                            -D_NR_OF_VIRTUAL_REGISTERS=8 -D?PBANK=0x93        #
#                            -D?CBANK=0x9F -D?CBANK_MASK=0xFF                  #
#                            -e?BCALL_FF=?BCALL -e?BRET_FF=?BRET               #
#                            -e?BDISPATCH_FF=?BDISPATCH                        #
#                            -D_CODEBANK_START=0x8000 -D_CODEBANK_END=0xFFFF   #
#                            -D_NR_OF_BANKS=0x07                               #
#                            -IE:\实验室Start\IAR\8051\CONFIG\ -rt             #
#                            -Ointel-extended=E:\实验室Start\TrajectoryCompres #
#                            sion\Serf_Embedded\Debug\Exe\serf-all.a51         #
#                            -s __program_start                                #
#                            E:\实验室Start\IAR\8051\LIB\DLIB\dl-pli-blxd-1e16 #
#                            x01n.r51                                          #
#                            -D_IDATA_STACK_SIZE=0x40 -D?ESP=0 -D?ESP_MASK=0   #
#                            -D_EXTENDED_STACK_START=0                         #
#                            -D_EXTENDED_STACK_SIZE=0                          #
#                            -D_PDATA_STACK_SIZE=0x80                          #
#                            -D_XDATA_STACK_SIZE=0x1FF                         #
#                            -D_XDATA_HEAP_SIZE=0xFF -D_FAR_HEAP_SIZE=0xFFF    #
#                            -D_HUGE_HEAP_SIZE=0xFFF                           #
#                            -D_FAR22_HEAP_SIZE=0xFFF)                         #
#                                                                              #
#                           Copyright (C) 1987-2016 IAR Systems AB.            #
################################################################################





                ****************************************
                *                                      *
                *           CROSS REFERENCE            *
                *                                      *
                ****************************************

       Program entry at : CODE      0000005A  Relocatable, from module : CSTARTUP




                ****************************************
                *                                      *
                *            RUNTIME MODEL             *
                *                                      *
                ****************************************

  __Heap_Handler             = Basic
  __SystemLibrary            = DLib
  __calling_convention       = xdata_reentrant
  __code_model               = banked
  __core                     = plain
  __data_model               = large
  __dlib_file_descriptor     = 0
  __dlib_full_locale_support = 0
  __dptr_size                = 16
  __extended_stack           = disabled
  __location_for_constants   = data
  __number_of_dptrs          = 1
  __register_banks           = *
  __rt_version               = 1

                ****************************************
                *                                      *
                *    AUTOMATIC SYMBOL REDIRECTIONS     *
                *                                      *
                ****************************************

       All references to: _Printf
         were redirected to: _PrintfLargeNoMb
       All references to: _Printf::?relay
         were redirected to: _PrintfLargeNoMb::?relay



                ****************************************
                *                                      *
                *              MODULE MAP              *
                *                                      *
                ****************************************


  DEFINED ABSOLUTE ENTRIES
    *************************************************************************

  DEFINED ABSOLUTE ENTRIES
  PROGRAM MODULE, NAME : ?ABS_ENTRY_MOD

Absolute parts
           ENTRY                   ADDRESS         REF BY
           =====                   =======         ======
           _FAR22_HEAP_SIZE        00000FFF 
           _HUGE_HEAP_SIZE         00000FFF 
           _FAR_HEAP_SIZE          00000FFF 
           _XDATA_HEAP_SIZE        000000FF 
           _XDATA_STACK_SIZE       000001FF 
           _PDATA_STACK_SIZE       00000080 
           _EXTENDED_STACK_SIZE    00000000 
           _EXTENDED_STACK_START   00000000 
           ?ESP_MASK               00000000 
           ?ESP                    00000000 
           _IDATA_STACK_SIZE       00000040 
           _NR_OF_BANKS            00000007 
           _CODEBANK_END           0000FFFF 
           _CODEBANK_START         00008000 
           ?CBANK_MASK             000000FF 
           ?CBANK                  0000009F        ?RESET_CODE_BANK (CSTARTUP)
                                                   Segment part 0 (?BANKED_CODE_SUPPORT)
           ?PBANK                  00000093 
           _NR_OF_VIRTUAL_REGISTERS
                                   00000008 
           _FLASH_LOCK_BITS_END    0003FFFF 
           _FLASH_LOCK_BITS_START
                                   0003FFF0 
           _BANK7_END              0003FFFF 
           _BANK7_START            00038000 
           _BANK6_END              00037FFF 
           _BANK6_START            00030000 
           _BANK5_END              0002FFFF 
           _BANK5_START            00028000 
           _BANK4_END              00027FFF 
           _BANK4_START            00020000 
           _BANK3_END              0001FFFF 
           _BANK3_START            00018000 
           _BANK2_END              00017FFF 
           _BANK2_START            00010000 
           _BANK1_END              0000FFFF 
           _BANK1_START            00008000 
           _BANK0_END              00007FFF 
           _BANK0_START            00000000 
           ?VB                     00000020        ?BANKED_ENTER_XDATA (?BANKED_ENTER_XDATA)
                                                   ?BANKED_LEAVE_XDATA (?BANKED_LEAVE_XDATA)
                                                   InputBitStream::ReadBit() (input_bit_stream)
           _BREG_START             00000000 
           _REGISTER_BANK_START    00000000 
           ?REGISTER_BANK          00000000        Segment part 6 (CSTARTUP)
           _FIRST_BANK_ADDR        00010000 
           _NEAR_CODE_START        00000000 
           _XDATA0_END             00001EFF 
           _XDATA0_START           00000001 
           _IXDATA0_END            00001EFF 
           _IXDATA0_START          00000001 
           _PDATA0_END             00001EFF 
           _PDATA0_START           00001E00 
           _IDATA0_END             000000FF 
           _IDATA0_START           00000000 
    *************************************************************************

  FILE NAME : E:\实验室Start\TrajectoryCompression\Serf_Embedded\Debug\Obj\elias_gamma_codec.r51
  PROGRAM MODULE, NAME : elias_gamma_codec

  SEGMENTS IN THE MODULE
  ======================
XDATA_I
  Relative segment, address: XDATA 000009DF - 00000A22 (0x44 bytes), align: 0
  Segment part 6.             Intra module refs:   EliasGammaCodec::Encode(long, OutputBitStream *)
           ENTRY                   ADDRESS         REF BY
           =====                   =======         ======
           EliasGammaCodec::kLog2Table
                                   000009DF 
    -------------------------------------------------------------------------
XDATA_I
  Relative segment, address: XDATA 00000A23 - 00000A26 (0x4 bytes), align: 0
  Segment part 8.             Intra module refs:   EliasGammaCodec::Encode(long, OutputBitStream *)
           ENTRY                   ADDRESS         REF BY
           =====                   =======         ======
           __Constant_11           00000A23 
    -------------------------------------------------------------------------
XDATA_I
  Relative segment, address: XDATA 00000A27 - 00000A2A (0x4 bytes), align: 0
  Segment part 10.            Intra module refs:   EliasGammaCodec::Encode(long, OutputBitStream *)
                                                   NetSerfQtCompressor::Compress(double) (net_serf_qt_compressor)
                                                   _LdtobLargeNoMb (?xprintflarge_nomb)
                                                   _LitobLargeNoMb (?xprintflarge_nomb)
                                                   _PrintfLargeNoMb (?xprintflarge_nomb)
                                                   fabsf (?fabsf)
                                                   floorf (?floorf)
           ENTRY                   ADDRESS         REF BY
           =====                   =======         ======
           __Constant_0            00000A27 
    -------------------------------------------------------------------------
XDATA_I
  Relative segment, address: XDATA 00000A2B - 00000A2E (0x4 bytes), align: 0
  Segment part 12.            Intra module refs:   EliasGammaCodec::Decode(InputBitStream *)
                                                   InputBitStream::Forward(uint32_t) (input_bit_stream)
                                                   InputBitStream::Peek(uint32_t) (input_bit_stream)
                                                   InputBitStream::ReadBit() (input_bit_stream)
                                                   NetSerfQtCompressor::Compress(double) (net_serf_qt_compressor)
                                                   NetSerfQtDecompressor::Decompress(Array<uint8_t> &) (net_serf_qt_decompressor)
                                                   OutputBitStream::Flush() (output_bit_stream)
                                                   OutputBitStream::Write(uint32_t, uint32_t) (output_bit_stream)
                                                   ceilf (?ceilf)
           ENTRY                   ADDRESS         REF BY
           =====                   =======         ======
           __Constant_1            00000A2B 
    -------------------------------------------------------------------------
<BANKED_CODE> 1 (was BANKED_CODE)
  Relative segment, address: CODE 00004F2E - 00005021 (0xf4 bytes), align: 0
  Segment part 14.            Intra module refs:   EliasGammaCodec::Encode(long, OutputBitStream *)::?relay
           ENTRY                   ADDRESS         REF BY
           =====                   =======         ======
           EliasGammaCodec::Encode(long, OutputBitStream *)
                                   00004F2E 
               calls direct
               XSTACK = 00000002 ( 0000001A )
               ISTACK = 00000000 ( 00000002 )
    -------------------------------------------------------------------------
<BANKED_CODE> 1 (was BANKED_CODE)
  Relative segment, address: CODE 00005022 - 00005023 (0x2 bytes), align: 0
  Segment part 16.            Intra module refs:   EliasGammaCodec::Encode(long, OutputBitStream *)
           LOCAL                   ADDRESS         
           =====                   =======         
           ?Subroutine0            00005022 
    -------------------------------------------------------------------------
<BANKED_CODE> 1 (was BANKED_CODE)
  Relative segment, address: CODE 00005024 - 0000502D (0xa bytes), align: 0
  Segment part 17.            Intra module refs:   ?Subroutine0
                                                   EliasGammaCodec::Decode(InputBitStream *)
    -------------------------------------------------------------------------
<BANKED_CODE> 1 (was BANKED_CODE)
  Relative segment, address: CODE 0000502E - 000050A4 (0x77 bytes), align: 0
  Segment part 18.            Intra module refs:   EliasGammaCodec::Decode(InputBitStream *)::?relay
           ENTRY                   ADDRESS         REF BY
           =====                   =======         ======
           EliasGammaCodec::Decode(InputBitStream *)
                                   0000502E 
               calls direct
               XSTACK = 00000000 ( 00000010 )
    -------------------------------------------------------------------------
XDATA_ID
  Relative segment, address: CODE 0000008A - 000000CD (0x44 bytes), align: 0
  Segment part 7.             Intra module refs:   EliasGammaCodec::kLog2Table
    -------------------------------------------------------------------------
XDATA_ID
  Relative segment, address: CODE 000000CE - 000000D1 (0x4 bytes), align: 0
  Segment part 9.             Intra module refs:   __Constant_11
    -------------------------------------------------------------------------
XDATA_ID
  Relative segment, address: CODE 000000D2 - 000000D5 (0x4 bytes), align: 0
  Segment part 11.            Intra module refs:   __Constant_0
    -------------------------------------------------------------------------
XDATA_ID
  Relative segment, address: CODE 000000D6 - 000000D9 (0x4 bytes), align: 0
  Segment part 13.            Intra module refs:   __Constant_1
    -------------------------------------------------------------------------
BANK_RELAYS
  Relative segment, address: CODE 00000562 - 00000567 (0x6 bytes), align: 0
  Segment part 15.
           ENTRY                   ADDRESS         REF BY
           =====                   =======         ======
           EliasGammaCodec::Encode(long, OutputBitStream *)::?relay
                                   00000562        NetSerfQtCompressor::Compress(double) (net_serf_qt_compressor)
    -------------------------------------------------------------------------
BANK_RELAYS
  Relative segment, address: CODE 00000568 - 0000056D (0x6 bytes), align: 0
  Segment part 19.
           ENTRY                   ADDRESS         REF BY
           =====                   =======         ======
           EliasGammaCodec::Decode(InputBitStream *)::?relay
                                   00000568        NetSerfQtDecompressor::Decompress(Array<uint8_t> &) (net_serf_qt_decompressor)

    *************************************************************************

  FILE NAME : E:\实验室Start\TrajectoryCompression\Serf_Embedded\Debug\Obj\file_reader.r51
  PROGRAM MODULE, NAME : file_reader

  SEGMENTS IN THE MODULE
  ======================
XDATA_Z
  Relative segment, address: XDATA 00000200 - 0000083F (0x640 bytes), align: 0
  Segment part 6.             Intra module refs:   file_reader_init(file_reader_t *, char const *)
                                                   file_reader_read_next(file_reader_t *, trajectory_point_t *)
           LOCAL                   ADDRESS         
           =====                   =======         
           trajectory_data         00000200 
    -------------------------------------------------------------------------
XDATA_Z
  Relative segment, address: XDATA 00000840 - 00000841 (0x2 bytes), align: 0
  Segment part 7.             Intra module refs:   file_reader_init(file_reader_t *, char const *)
           LOCAL                   ADDRESS         
           =====                   =======         
           trajectory_count        00000840 
    -------------------------------------------------------------------------
XDATA_Z
  Relative segment, address: XDATA 00000842 - 00000842 (0x1 bytes), align: 0
  Segment part 8.             Intra module refs:   file_reader_init(file_reader_t *, char const *)
           LOCAL                   ADDRESS         
           =====                   =======         
           data_loaded             00000842 
    -------------------------------------------------------------------------
<BANKED_CODE> 1 (was BANKED_CODE)
  Relative segment, address: CODE 000049DA - 00004B15 (0x13c bytes), align: 0
  Segment part 15.            Intra module refs:   file_reader_init(file_reader_t *, char const *)::?relay
           ENTRY                   ADDRESS         REF BY
           =====                   =======         ======
           file_reader_init(file_reader_t *, char const *)
                                   000049DA 
               XSTACK = 00000000 ( 00000018 )
               ISTACK = 00000000 ( 00000001 )
    -------------------------------------------------------------------------
<BANKED_CODE> 1 (was BANKED_CODE)
  Relative segment, address: CODE 00004B16 - 00004B1E (0x9 bytes), align: 0
  Segment part 17.            Intra module refs:   file_reader_init(file_reader_t *, char const *)
           LOCAL                   ADDRESS         
           =====                   =======         
           ?Subroutine3            00004B16 
    -------------------------------------------------------------------------
<BANKED_CODE> 1 (was BANKED_CODE)
  Relative segment, address: CODE 00004B1F - 00004B28 (0xa bytes), align: 0
  Segment part 18.            Intra module refs:   file_reader_init(file_reader_t *, char const *)
           LOCAL                   ADDRESS         
           =====                   =======         
           ?Subroutine2            00004B1F 
    -------------------------------------------------------------------------
<BANKED_CODE> 1 (was BANKED_CODE)
  Relative segment, address: CODE 00004B29 - 00004B34 (0xc bytes), align: 0
  Segment part 19.            Intra module refs:   ?Subroutine1
                                                   ?Subroutine2
                                                   file_reader_init(file_reader_t *, char const *)
           LOCAL                   ADDRESS         
           =====                   =======         
           ?Subroutine4            00004B29 
    -------------------------------------------------------------------------
<BANKED_CODE> 1 (was BANKED_CODE)
  Relative segment, address: CODE 00004B35 - 00004B41 (0xd bytes), align: 0
  Segment part 20.            Intra module refs:   file_reader_init(file_reader_t *, char const *)
           LOCAL                   ADDRESS         
           =====                   =======         
           ?Subroutine1            00004B35 
    -------------------------------------------------------------------------
<BANKED_CODE> 1 (was BANKED_CODE)
  Relative segment, address: CODE 00004B42 - 00004BB5 (0x74 bytes), align: 0
  Segment part 21.            Intra module refs:   file_reader_read_next(file_reader_t *, trajectory_point_t *)::?relay
           ENTRY                   ADDRESS         REF BY
           =====                   =======         ======
           file_reader_read_next(file_reader_t *, trajectory_point_t *)
                                   00004B42 
               XSTACK = 00000000 ( 0000000A )
    -------------------------------------------------------------------------
<BANKED_CODE> 1 (was BANKED_CODE)
  Relative segment, address: CODE 00004BB6 - 00004BBC (0x7 bytes), align: 0
  Segment part 25.            Intra module refs:   file_reader_close(file_reader_t *)
                                                   file_reader_get_total_points(file_reader_t *)
           LOCAL                   ADDRESS         
           =====                   =======         
           ?Subroutine0            00004BB6 
    -------------------------------------------------------------------------
<BANKED_CODE> 1 (was BANKED_CODE)
  Relative segment, address: CODE 00004BBD - 00004BDB (0x1f bytes), align: 0
  Segment part 26.            Intra module refs:   file_reader_close(file_reader_t *)::?relay
           ENTRY                   ADDRESS         REF BY
           =====                   =======         ======
           file_reader_close(file_reader_t *)
                                   00004BBD 
               ISTACK = 00000000 ( 00000003 )
    -------------------------------------------------------------------------
<BANKED_CODE> 1 (was BANKED_CODE)
  Relative segment, address: CODE 00004BDC - 00004BF8 (0x1d bytes), align: 0
  Segment part 28.            Intra module refs:   file_reader_get_total_points(file_reader_t *)::?relay
           ENTRY                   ADDRESS         REF BY
           =====                   =======         ======
           file_reader_get_total_points(file_reader_t *)
                                   00004BDC 
               ISTACK = 00000000 ( 00000002 )
    -------------------------------------------------------------------------
XDATA_I
  Relative segment, address: XDATA 00000A2F - 00000A32 (0x4 bytes), align: 0
  Segment part 9.             Intra module refs:   file_reader_init(file_reader_t *, char const *)
                                                   test_net_serf_qt_streaming() (iar_serf_test)
           ENTRY                   ADDRESS         REF BY
           =====                   =======         ======
           __Constant_38d1b717     00000A2F 
    -------------------------------------------------------------------------
XDATA_ID
  Relative segment, address: CODE 000000DA - 000000DD (0x4 bytes), align: 0
  Segment part 10.            Intra module refs:   __Constant_38d1b717
    -------------------------------------------------------------------------
XDATA_I
  Relative segment, address: XDATA 00000A33 - 00000A36 (0x4 bytes), align: 0
  Segment part 11.            Intra module refs:   file_reader_init(file_reader_t *, char const *)
           ENTRY                   ADDRESS         REF BY
           =====                   =======         ======
           __Constant_42200e33     00000A33 
    -------------------------------------------------------------------------
XDATA_ID
  Relative segment, address: CODE 000000DE - 000000E1 (0x4 bytes), align: 0
  Segment part 12.            Intra module refs:   __Constant_42200e33
    -------------------------------------------------------------------------
XDATA_I
  Relative segment, address: XDATA 00000A37 - 00000A3A (0x4 bytes), align: 0
  Segment part 13.            Intra module refs:   file_reader_init(file_reader_t *, char const *)
           ENTRY                   ADDRESS         REF BY
           =====                   =======         ======
           __Constant_42e89cea     00000A37 
    -------------------------------------------------------------------------
XDATA_ID
  Relative segment, address: CODE 000000E2 - 000000E5 (0x4 bytes), align: 0
  Segment part 14.            Intra module refs:   __Constant_42e89cea
    -------------------------------------------------------------------------
BANK_RELAYS
  Relative segment, address: CODE 0000056E - 00000573 (0x6 bytes), align: 0
  Segment part 16.
           ENTRY                   ADDRESS         REF BY
           =====                   =======         ======
           file_reader_init(file_reader_t *, char const *)::?relay
                                   0000056E        load_test_data(char const *) (iar_serf_test)
    -------------------------------------------------------------------------
BANK_RELAYS
  Relative segment, address: CODE 00000574 - 00000579 (0x6 bytes), align: 0
  Segment part 22.
           ENTRY                   ADDRESS         REF BY
           =====                   =======         ======
           file_reader_read_next(file_reader_t *, trajectory_point_t *)::?relay
                                   00000574        load_test_data(char const *) (iar_serf_test)
    -------------------------------------------------------------------------
BANK_RELAYS
  Relative segment, address: CODE 0000057A - 0000057F (0x6 bytes), align: 0
  Segment part 27.
           ENTRY                   ADDRESS         REF BY
           =====                   =======         ======
           file_reader_close(file_reader_t *)::?relay
                                   0000057A        load_test_data(char const *) (iar_serf_test)
    -------------------------------------------------------------------------
BANK_RELAYS
  Relative segment, address: CODE 00000580 - 00000585 (0x6 bytes), align: 0
  Segment part 29.
           ENTRY                   ADDRESS         REF BY
           =====                   =======         ======
           file_reader_get_total_points(file_reader_t *)::?relay
                                   00000580        load_test_data(char const *) (iar_serf_test)

    *************************************************************************

  FILE NAME : E:\实验室Start\TrajectoryCompression\Serf_Embedded\Debug\Obj\iar_serf_test.r51
  PROGRAM MODULE, NAME : iar_serf_test

  SEGMENTS IN THE MODULE
  ======================
XDATA_Z
  Relative segment, address: XDATA 00000843 - 000009D2 (0x190 bytes), align: 0
  Segment part 122.           Intra module refs:   load_test_data(char const *)
                                                   test_net_serf_qt_streaming()
           LOCAL                   ADDRESS         
           =====                   =======         
           test_data               00000843 
    -------------------------------------------------------------------------
XDATA_Z
  Relative segment, address: XDATA 000009D3 - 000009D4 (0x2 bytes), align: 0
  Segment part 123.           Intra module refs:   ?Subroutine16
                                                   load_test_data(char const *)
                                                   test_net_serf_qt_streaming()
           LOCAL                   ADDRESS         
           =====                   =======         
           test_data_count         000009D3 
    -------------------------------------------------------------------------
<BANKED_CODE> 1 (was BANKED_CODE)
  Relative segment, address: CODE 00002F3E - 0000301B (0xde bytes), align: 0
  Segment part 136.           Intra module refs:   load_test_data(char const *)::?relay
           ENTRY                   ADDRESS         REF BY
           =====                   =======         ======
           load_test_data(char const *)
                                   00002F3E 
               calls direct
               XSTACK = 00000000 ( 00000025 )
    -------------------------------------------------------------------------
<BANKED_CODE> 1 (was BANKED_CODE)
  Relative segment, address: CODE 0000301C - 00003023 (0x8 bytes), align: 0
  Segment part 140.           Intra module refs:   test_net_serf_qt_streaming()
           LOCAL                   ADDRESS         
           =====                   =======         
           ?Subroutine0            0000301C 
    -------------------------------------------------------------------------
<BANKED_CODE> 1 (was BANKED_CODE)
  Relative segment, address: CODE 00003024 - 00003026 (0x3 bytes), align: 0
  Segment part 153.           Intra module refs:   test_net_serf_qt_streaming()
           LOCAL                   ADDRESS         
           =====                   =======         
           ?Subroutine3            00003024 
    -------------------------------------------------------------------------
<BANKED_CODE> 1 (was BANKED_CODE)
  Relative segment, address: CODE 00003027 - 0000302D (0x7 bytes), align: 0
  Segment part 154.           Intra module refs:   ?Subroutine3
                                                   test_net_serf_qt_streaming()
    -------------------------------------------------------------------------
<BANKED_CODE> 1 (was BANKED_CODE)
  Relative segment, address: CODE 0000302E - 00003626 (0x5f9 bytes), align: 0
  Segment part 156.           Intra module refs:   test_net_serf_qt_streaming()::?relay
           ENTRY                   ADDRESS         REF BY
           =====                   =======         ======
           test_net_serf_qt_streaming()
                                   0000302E 
               calls direct
               XSTACK = 00000000 ( 0000007E )
               ISTACK = 00000000 ( 00000002 )
    -------------------------------------------------------------------------
<BANKED_CODE> 1 (was BANKED_CODE)
  Relative segment, address: CODE 00003627 - 0000362E (0x8 bytes), align: 0
  Segment part 158.           Intra module refs:   ?Subroutine16
                                                   test_net_serf_qt_streaming()
           LOCAL                   ADDRESS         
           =====                   =======         
           ?Subroutine23           00003627 
    -------------------------------------------------------------------------
<BANKED_CODE> 1 (was BANKED_CODE)
  Relative segment, address: CODE 0000362F - 00003638 (0xa bytes), align: 0
  Segment part 159.           Intra module refs:   test_net_serf_qt_streaming()
           LOCAL                   ADDRESS         
           =====                   =======         
           ?Subroutine19           0000362F 
    -------------------------------------------------------------------------
<BANKED_CODE> 1 (was BANKED_CODE)
  Relative segment, address: CODE 00003639 - 00003643 (0xb bytes), align: 0
  Segment part 160.           Intra module refs:   test_net_serf_qt_streaming()
           LOCAL                   ADDRESS         
           =====                   =======         
           ?Subroutine16           00003639 
    -------------------------------------------------------------------------
<BANKED_CODE> 1 (was BANKED_CODE)
  Relative segment, address: CODE 00003644 - 00003647 (0x4 bytes), align: 0
  Segment part 161.           Intra module refs:   test_net_serf_qt_streaming()
           LOCAL                   ADDRESS         
           =====                   =======         
           ?Subroutine14           00003644 
    -------------------------------------------------------------------------
<BANKED_CODE> 1 (was BANKED_CODE)
  Relative segment, address: CODE 00003648 - 00003650 (0x9 bytes), align: 0
  Segment part 162.           Intra module refs:   ?Subroutine13
                                                   ?Subroutine14
           LOCAL                   ADDRESS         
           =====                   =======         
           ?Subroutine25           00003648 
    -------------------------------------------------------------------------
<BANKED_CODE> 1 (was BANKED_CODE)
  Relative segment, address: CODE 00003651 - 00003658 (0x8 bytes), align: 0
  Segment part 163.           Intra module refs:   test_net_serf_qt_streaming()
           LOCAL                   ADDRESS         
           =====                   =======         
           ?Subroutine13           00003651 
    -------------------------------------------------------------------------
<BANKED_CODE> 1 (was BANKED_CODE)
  Relative segment, address: CODE 00003659 - 00003662 (0xa bytes), align: 0
  Segment part 164.           Intra module refs:   test_net_serf_qt_streaming()
           LOCAL                   ADDRESS         
           =====                   =======         
           ?Subroutine11           00003659 
    -------------------------------------------------------------------------
<BANKED_CODE> 1 (was BANKED_CODE)
  Relative segment, address: CODE 00003663 - 00003668 (0x6 bytes), align: 0
  Segment part 165.           Intra module refs:   test_net_serf_qt_streaming()
           LOCAL                   ADDRESS         
           =====                   =======         
           ?Subroutine10           00003663 
    -------------------------------------------------------------------------
<BANKED_CODE> 1 (was BANKED_CODE)
  Relative segment, address: CODE 00003669 - 0000366C (0x4 bytes), align: 0
  Segment part 166.           Intra module refs:   ?Subroutine10
                                                   test_net_serf_qt_streaming()
    -------------------------------------------------------------------------
<BANKED_CODE> 1 (was BANKED_CODE)
  Relative segment, address: CODE 0000366D - 00003672 (0x6 bytes), align: 0
  Segment part 167.           Intra module refs:   Segment part 166
                                                   Segment part 170
           LOCAL                   ADDRESS         
           =====                   =======         
           ?Subroutine24           0000366D 
    -------------------------------------------------------------------------
<BANKED_CODE> 1 (was BANKED_CODE)
  Relative segment, address: CODE 00003673 - 0000367A (0x8 bytes), align: 0
  Segment part 168.           Intra module refs:   test_net_serf_qt_streaming()
           LOCAL                   ADDRESS         
           =====                   =======         
           ?Subroutine7            00003673 
    -------------------------------------------------------------------------
<BANKED_CODE> 1 (was BANKED_CODE)
  Relative segment, address: CODE 0000367B - 00003680 (0x6 bytes), align: 0
  Segment part 170.           Intra module refs:   test_net_serf_qt_streaming()
    -------------------------------------------------------------------------
<BANKED_CODE> 1 (was BANKED_CODE)
  Relative segment, address: CODE 00003681 - 00003686 (0x6 bytes), align: 0
  Segment part 171.           Intra module refs:   test_net_serf_qt_streaming()
           LOCAL                   ADDRESS         
           =====                   =======         
           ?Subroutine4            00003681 
    -------------------------------------------------------------------------
<BANKED_CODE> 1 (was BANKED_CODE)
  Relative segment, address: CODE 00003687 - 0000368F (0x9 bytes), align: 0
  Segment part 172.           Intra module refs:   test_net_serf_qt_streaming()
           LOCAL                   ADDRESS         
           =====                   =======         
           ?Subroutine1            00003687 
    -------------------------------------------------------------------------
<BANKED_CODE> 1 (was BANKED_CODE)
  Relative segment, address: CODE 00003690 - 000036BD (0x2e bytes), align: 0
  Segment part 173.
           ENTRY                   ADDRESS         REF BY
           =====                   =======         ======
           main                    00003690        ?call_main (?cmain)
               calls direct
    -------------------------------------------------------------------------
XDATA_ID
  Relative segment, address: CODE 000000E6 - 000000F6 (0x11 bytes), align: 0
  Segment part 7.             Intra module refs:   Segment part 6
    -------------------------------------------------------------------------
XDATA_ID
  Relative segment, address: CODE 000000F7 - 0000011B (0x25 bytes), align: 0
  Segment part 9.             Intra module refs:   Segment part 8
    -------------------------------------------------------------------------
XDATA_ID
  Relative segment, address: CODE 0000011C - 00000139 (0x1e bytes), align: 0
  Segment part 11.            Intra module refs:   Segment part 10
    -------------------------------------------------------------------------
XDATA_ID
  Relative segment, address: CODE 0000013A - 00000149 (0x10 bytes), align: 0
  Segment part 15.            Intra module refs:   Segment part 14
    -------------------------------------------------------------------------
XDATA_ID
  Relative segment, address: CODE 0000014A - 0000016E (0x25 bytes), align: 0
  Segment part 79.            Intra module refs:   Segment part 78
    -------------------------------------------------------------------------
XDATA_ID
  Relative segment, address: CODE 0000016F - 00000199 (0x2b bytes), align: 0
  Segment part 81.            Intra module refs:   Segment part 80
    -------------------------------------------------------------------------
XDATA_ID
  Relative segment, address: CODE 0000019A - 000001EB (0x52 bytes), align: 0
  Segment part 83.            Intra module refs:   Segment part 82
    -------------------------------------------------------------------------
XDATA_ID
  Relative segment, address: CODE 000001EC - 00000208 (0x1d bytes), align: 0
  Segment part 85.            Intra module refs:   Segment part 84
    -------------------------------------------------------------------------
XDATA_ID
  Relative segment, address: CODE 00000209 - 0000025D (0x55 bytes), align: 0
  Segment part 87.            Intra module refs:   Segment part 86
    -------------------------------------------------------------------------
XDATA_ID
  Relative segment, address: CODE 0000025E - 0000027E (0x21 bytes), align: 0
  Segment part 89.            Intra module refs:   Segment part 88
    -------------------------------------------------------------------------
XDATA_ID
  Relative segment, address: CODE 0000027F - 00000294 (0x16 bytes), align: 0
  Segment part 91.            Intra module refs:   Segment part 90
    -------------------------------------------------------------------------
XDATA_ID
  Relative segment, address: CODE 00000295 - 000002C0 (0x2c bytes), align: 0
  Segment part 93.            Intra module refs:   Segment part 92
    -------------------------------------------------------------------------
XDATA_ID
  Relative segment, address: CODE 000002C1 - 000002EB (0x2b bytes), align: 0
  Segment part 95.            Intra module refs:   Segment part 94
    -------------------------------------------------------------------------
XDATA_ID
  Relative segment, address: CODE 000002EC - 00000307 (0x1c bytes), align: 0
  Segment part 97.            Intra module refs:   Segment part 96
    -------------------------------------------------------------------------
XDATA_ID
  Relative segment, address: CODE 00000308 - 0000032C (0x25 bytes), align: 0
  Segment part 99.            Intra module refs:   Segment part 98
    -------------------------------------------------------------------------
XDATA_ID
  Relative segment, address: CODE 0000032D - 00000350 (0x24 bytes), align: 0
  Segment part 101.           Intra module refs:   Segment part 100
    -------------------------------------------------------------------------
XDATA_ID
  Relative segment, address: CODE 00000351 - 00000366 (0x16 bytes), align: 0
  Segment part 103.           Intra module refs:   Segment part 102
    -------------------------------------------------------------------------
XDATA_ID
  Relative segment, address: CODE 00000367 - 00000389 (0x23 bytes), align: 0
  Segment part 105.           Intra module refs:   Segment part 104
    -------------------------------------------------------------------------
XDATA_ID
  Relative segment, address: CODE 0000038A - 000003AC (0x23 bytes), align: 0
  Segment part 107.           Intra module refs:   Segment part 106
    -------------------------------------------------------------------------
XDATA_ID
  Relative segment, address: CODE 000003AD - 000003CD (0x21 bytes), align: 0
  Segment part 109.           Intra module refs:   Segment part 108
    -------------------------------------------------------------------------
XDATA_ID
  Relative segment, address: CODE 000003CE - 000003E9 (0x1c bytes), align: 0
  Segment part 111.           Intra module refs:   Segment part 110
    -------------------------------------------------------------------------
XDATA_ID
  Relative segment, address: CODE 000003EA - 00000419 (0x30 bytes), align: 0
  Segment part 113.           Intra module refs:   Segment part 112
    -------------------------------------------------------------------------
XDATA_ID
  Relative segment, address: CODE 0000041A - 0000042C (0x13 bytes), align: 0
  Segment part 115.           Intra module refs:   Segment part 114
    -------------------------------------------------------------------------
XDATA_ID
  Relative segment, address: CODE 0000042D - 00000443 (0x17 bytes), align: 0
  Segment part 117.           Intra module refs:   Segment part 116
    -------------------------------------------------------------------------
XDATA_ID
  Relative segment, address: CODE 00000444 - 00000459 (0x16 bytes), align: 0
  Segment part 119.           Intra module refs:   Segment part 118
    -------------------------------------------------------------------------
XDATA_ID
  Relative segment, address: CODE 0000045A - 0000045D (0x4 bytes), align: 0
  Segment part 131.           Intra module refs:   __Constant_42c80000
    -------------------------------------------------------------------------
XDATA_ID
  Relative segment, address: CODE 0000045E - 00000461 (0x4 bytes), align: 0
  Segment part 133.           Intra module refs:   __Constant_38d1b718
    -------------------------------------------------------------------------
BANK_RELAYS
  Relative segment, address: CODE 00000586 - 0000058B (0x6 bytes), align: 0
  Segment part 137.           Intra module refs:   main
           ENTRY                   ADDRESS         REF BY
           =====                   =======         ======
           load_test_data(char const *)::?relay
                                   00000586 
    -------------------------------------------------------------------------
BANK_RELAYS
  Relative segment, address: CODE 0000058C - 00000591 (0x6 bytes), align: 0
  Segment part 157.           Intra module refs:   main
           ENTRY                   ADDRESS         REF BY
           =====                   =======         ======
           test_net_serf_qt_streaming()::?relay
                                   0000058C 
    -------------------------------------------------------------------------
XDATA_I
  Relative segment, address: XDATA 00000A3B - 00000A4B (0x11 bytes), align: 0
  Segment part 6.             Intra module refs:   load_test_data(char const *)
    -------------------------------------------------------------------------
XDATA_I
  Relative segment, address: XDATA 00000A4C - 00000A70 (0x25 bytes), align: 0
  Segment part 8.             Intra module refs:   load_test_data(char const *)
    -------------------------------------------------------------------------
XDATA_I
  Relative segment, address: XDATA 00000A71 - 00000A8E (0x1e bytes), align: 0
  Segment part 10.            Intra module refs:   load_test_data(char const *)
    -------------------------------------------------------------------------
XDATA_I
  Relative segment, address: XDATA 00000A8F - 00000A9E (0x10 bytes), align: 0
  Segment part 14.            Intra module refs:   test_net_serf_qt_streaming()
    -------------------------------------------------------------------------
XDATA_I
  Relative segment, address: XDATA 00000A9F - 00000AC3 (0x25 bytes), align: 0
  Segment part 78.            Intra module refs:   test_net_serf_qt_streaming()
    -------------------------------------------------------------------------
XDATA_I
  Relative segment, address: XDATA 00000AC4 - 00000AEE (0x2b bytes), align: 0
  Segment part 80.            Intra module refs:   test_net_serf_qt_streaming()
    -------------------------------------------------------------------------
XDATA_I
  Relative segment, address: XDATA 00000AEF - 00000B40 (0x52 bytes), align: 0
  Segment part 82.            Intra module refs:   test_net_serf_qt_streaming()
    -------------------------------------------------------------------------
XDATA_I
  Relative segment, address: XDATA 00000B41 - 00000B5D (0x1d bytes), align: 0
  Segment part 84.            Intra module refs:   test_net_serf_qt_streaming()
    -------------------------------------------------------------------------
XDATA_I
  Relative segment, address: XDATA 00000B5E - 00000BB2 (0x55 bytes), align: 0
  Segment part 86.            Intra module refs:   test_net_serf_qt_streaming()
    -------------------------------------------------------------------------
XDATA_I
  Relative segment, address: XDATA 00000BB3 - 00000BD3 (0x21 bytes), align: 0
  Segment part 88.            Intra module refs:   test_net_serf_qt_streaming()
    -------------------------------------------------------------------------
XDATA_I
  Relative segment, address: XDATA 00000BD4 - 00000BE9 (0x16 bytes), align: 0
  Segment part 90.            Intra module refs:   test_net_serf_qt_streaming()
    -------------------------------------------------------------------------
XDATA_I
  Relative segment, address: XDATA 00000BEA - 00000C15 (0x2c bytes), align: 0
  Segment part 92.            Intra module refs:   test_net_serf_qt_streaming()
    -------------------------------------------------------------------------
XDATA_I
  Relative segment, address: XDATA 00000C16 - 00000C40 (0x2b bytes), align: 0
  Segment part 94.            Intra module refs:   test_net_serf_qt_streaming()
    -------------------------------------------------------------------------
XDATA_I
  Relative segment, address: XDATA 00000C41 - 00000C5C (0x1c bytes), align: 0
  Segment part 96.            Intra module refs:   test_net_serf_qt_streaming()
    -------------------------------------------------------------------------
XDATA_I
  Relative segment, address: XDATA 00000C5D - 00000C81 (0x25 bytes), align: 0
  Segment part 98.            Intra module refs:   test_net_serf_qt_streaming()
    -------------------------------------------------------------------------
XDATA_I
  Relative segment, address: XDATA 00000C82 - 00000CA5 (0x24 bytes), align: 0
  Segment part 100.           Intra module refs:   test_net_serf_qt_streaming()
    -------------------------------------------------------------------------
XDATA_I
  Relative segment, address: XDATA 00000CA6 - 00000CBB (0x16 bytes), align: 0
  Segment part 102.           Intra module refs:   test_net_serf_qt_streaming()
    -------------------------------------------------------------------------
XDATA_I
  Relative segment, address: XDATA 00000CBC - 00000CDE (0x23 bytes), align: 0
  Segment part 104.           Intra module refs:   test_net_serf_qt_streaming()
    -------------------------------------------------------------------------
XDATA_I
  Relative segment, address: XDATA 00000CDF - 00000D01 (0x23 bytes), align: 0
  Segment part 106.           Intra module refs:   test_net_serf_qt_streaming()
    -------------------------------------------------------------------------
XDATA_I
  Relative segment, address: XDATA 00000D02 - 00000D22 (0x21 bytes), align: 0
  Segment part 108.           Intra module refs:   test_net_serf_qt_streaming()
    -------------------------------------------------------------------------
XDATA_I
  Relative segment, address: XDATA 00000D23 - 00000D3E (0x1c bytes), align: 0
  Segment part 110.           Intra module refs:   test_net_serf_qt_streaming()
    -------------------------------------------------------------------------
XDATA_I
  Relative segment, address: XDATA 00000D3F - 00000D6E (0x30 bytes), align: 0
  Segment part 112.           Intra module refs:   main
    -------------------------------------------------------------------------
XDATA_I
  Relative segment, address: XDATA 00000D6F - 00000D81 (0x13 bytes), align: 0
  Segment part 114.           Intra module refs:   main
    -------------------------------------------------------------------------
XDATA_I
  Relative segment, address: XDATA 00000D82 - 00000D98 (0x17 bytes), align: 0
  Segment part 116.           Intra module refs:   main
    -------------------------------------------------------------------------
XDATA_I
  Relative segment, address: XDATA 00000D99 - 00000DAE (0x16 bytes), align: 0
  Segment part 118.           Intra module refs:   main
    -------------------------------------------------------------------------
XDATA_I
  Relative segment, address: XDATA 00000DAF - 00000DB2 (0x4 bytes), align: 0
  Segment part 130.           Intra module refs:   test_net_serf_qt_streaming()
           ENTRY                   ADDRESS         REF BY
           =====                   =======         ======
           __Constant_42c80000     00000DAF 
    -------------------------------------------------------------------------
XDATA_I
  Relative segment, address: XDATA 00000DB3 - 00000DB6 (0x4 bytes), align: 0
  Segment part 132.           Intra module refs:   test_net_serf_qt_streaming()
           ENTRY                   ADDRESS         REF BY
           =====                   =======         ======
           __Constant_38d1b718     00000DB3 

    *************************************************************************

  FILE NAME : E:\实验室Start\TrajectoryCompression\Serf_Embedded\Debug\Obj\input_bit_stream.r51
  PROGRAM MODULE, NAME : input_bit_stream

  SEGMENTS IN THE MODULE
  ======================
<BANKED_CODE> 1 (was BANKED_CODE)
  Relative segment, address: CODE 000036BE - 000036F8 (0x3b bytes), align: 0
  Segment part 20.            Intra module refs:   InputBitStream::InputBitStream()::?relay
           ENTRY                   ADDRESS         REF BY
           =====                   =======         ======
           InputBitStream::InputBitStream()
                                   000036BE 
               XSTACK = 0000000A ( 00000000 )
               ISTACK = 00000000 ( 00000002 )
    -------------------------------------------------------------------------
<BANKED_CODE> 1 (was BANKED_CODE)
  Relative segment, address: CODE 000036F9 - 00003702 (0xa bytes), align: 0
  Segment part 22.            Intra module refs:   InputBitStream::InputBitStream()
           LOCAL                   ADDRESS         
           =====                   =======         
           ?Subroutine7            000036F9 
    -------------------------------------------------------------------------
<BANKED_CODE> 1 (was BANKED_CODE)
  Relative segment, address: CODE 00003703 - 00003709 (0x7 bytes), align: 0
  Segment part 23.            Intra module refs:   InputBitStream::InputBitStream()
           LOCAL                   ADDRESS         
           =====                   =======         
           ?Subroutine4            00003703 
    -------------------------------------------------------------------------
<BANKED_CODE> 1 (was BANKED_CODE)
  Relative segment, address: CODE 0000370A - 0000370E (0x5 bytes), align: 0
  Segment part 24.            Intra module refs:   ?Subroutine4
                                                   InputBitStream::InputBitStream()
    -------------------------------------------------------------------------
<BANKED_CODE> 1 (was BANKED_CODE)
  Relative segment, address: CODE 0000370F - 00003713 (0x5 bytes), align: 0
  Segment part 27.            Intra module refs:   InputBitStream::HasMoreData() const
                                                   InputBitStream::ReadBit()
           LOCAL                   ADDRESS         
           =====                   =======         
           ?Subroutine0            0000370F 
    -------------------------------------------------------------------------
<BANKED_CODE> 1 (was BANKED_CODE)
  Relative segment, address: CODE 00003714 - 00003715 (0x2 bytes), align: 0
  Segment part 28.            Intra module refs:   InputBitStream::InputBitStream()
           LOCAL                   ADDRESS         
           =====                   =======         
           ?Subroutine6            00003714 
    -------------------------------------------------------------------------
<BANKED_CODE> 1 (was BANKED_CODE)
  Relative segment, address: CODE 00003716 - 00003716 (0x1 bytes), align: 0
  Segment part 29.            Intra module refs:   ?Subroutine6
                                                   InputBitStream::Peek(uint32_t)
    -------------------------------------------------------------------------
<BANKED_CODE> 1 (was BANKED_CODE)
  Relative segment, address: CODE 00003717 - 0000371A (0x4 bytes), align: 0
  Segment part 30.            Intra module refs:   InputBitStream::InputBitStream()
                                                   Segment part 29
    -------------------------------------------------------------------------
<BANKED_CODE> 1 (was BANKED_CODE)
  Relative segment, address: CODE 0000371B - 0000389C (0x182 bytes), align: 0
  Segment part 33.            Intra module refs:   InputBitStream::Peek(uint32_t)::?relay
           ENTRY                   ADDRESS         REF BY
           =====                   =======         ======
           InputBitStream::Peek(uint32_t)
                                   0000371B 
               XSTACK = 00000014 ( 00000020 )
               ISTACK = 00000000 ( 00000004 )
    -------------------------------------------------------------------------
<BANKED_CODE> 1 (was BANKED_CODE)
  Relative segment, address: CODE 0000389D - 000038A1 (0x5 bytes), align: 0
  Segment part 35.            Intra module refs:   InputBitStream::Forward(uint32_t)
                                                   InputBitStream::Peek(uint32_t)
                                                   InputBitStream::SetBuffer(Array<uint8_t> const &)
           LOCAL                   ADDRESS         
           =====                   =======         
           ?Subroutine2            0000389D 
    -------------------------------------------------------------------------
<BANKED_CODE> 1 (was BANKED_CODE)
  Relative segment, address: CODE 000038A2 - 000038E2 (0x41 bytes), align: 0
  Segment part 36.            Intra module refs:   InputBitStream::ReadInt(uint32_t)
           LOCAL                   ADDRESS         
           =====                   =======         
           ?Subroutine1            000038A2 
    -------------------------------------------------------------------------
<BANKED_CODE> 1 (was BANKED_CODE)
  Relative segment, address: CODE 000038E3 - 000038E7 (0x5 bytes), align: 0
  Segment part 37.            Intra module refs:   ?Subroutine1
                                                   ?Subroutine2
    -------------------------------------------------------------------------
<BANKED_CODE> 1 (was BANKED_CODE)
  Relative segment, address: CODE 000038E8 - 00003A1F (0x138 bytes), align: 0
  Segment part 38.            Intra module refs:   InputBitStream::Forward(uint32_t)::?relay
           ENTRY                   ADDRESS         REF BY
           =====                   =======         ======
           InputBitStream::Forward(uint32_t)
                                   000038E8 
               XSTACK = 00000014 ( 00000016 )
    -------------------------------------------------------------------------
<BANKED_CODE> 1 (was BANKED_CODE)
  Relative segment, address: CODE 00003A20 - 00003A25 (0x6 bytes), align: 0
  Segment part 40.            Intra module refs:   InputBitStream::Forward(uint32_t)
                                                   InputBitStream::InputBitStream()
                                                   InputBitStream::ReadBit()
           LOCAL                   ADDRESS         
           =====                   =======         
           ?Subroutine9            00003A20 
    -------------------------------------------------------------------------
<BANKED_CODE> 1 (was BANKED_CODE)
  Relative segment, address: CODE 00003A26 - 00003A28 (0x3 bytes), align: 0
  Segment part 43.            Intra module refs:   InputBitStream::ReadInt(uint32_t)::?relay
           ENTRY                   ADDRESS         REF BY
           =====                   =======         ======
           InputBitStream::ReadInt(uint32_t)
                                   00003A26 
               calls direct
               XSTACK = 00000004 ( 00000014 )
    -------------------------------------------------------------------------
<BANKED_CODE> 1 (was BANKED_CODE)
  Relative segment, address: CODE 00003A29 - 00003A86 (0x5e bytes), align: 0
  Segment part 45.            Intra module refs:   InputBitStream::ReadBit()::?relay
           ENTRY                   ADDRESS         REF BY
           =====                   =======         ======
           InputBitStream::ReadBit()
                                   00003A29 
               calls direct
               XSTACK = 00000000 ( 00000010 )
    -------------------------------------------------------------------------
<BANKED_CODE> 1 (was BANKED_CODE)
  Relative segment, address: CODE 00003A87 - 00003A8F (0x9 bytes), align: 0
  Segment part 47.            Intra module refs:   InputBitStream::HasMoreData() const
                                                   InputBitStream::Peek(uint32_t)
                                                   InputBitStream::ReadBit()
           LOCAL                   ADDRESS         
           =====                   =======         
           ?Subroutine15           00003A87 
    -------------------------------------------------------------------------
<BANKED_CODE> 1 (was BANKED_CODE)
  Relative segment, address: CODE 00003A90 - 00003AE0 (0x51 bytes), align: 0
  Segment part 48.            Intra module refs:   InputBitStream::HasMoreData() const::?relay
           ENTRY                   ADDRESS         REF BY
           =====                   =======         ======
           InputBitStream::HasMoreData() const
                                   00003A90 
               XSTACK = 00000000 ( 0000000C )
    -------------------------------------------------------------------------
<BANKED_CODE> 1 (was BANKED_CODE)
  Relative segment, address: CODE 00003AE1 - 00003AEC (0xc bytes), align: 0
  Segment part 50.            Intra module refs:   InputBitStream::HasMoreData() const
           LOCAL                   ADDRESS         
           =====                   =======         
           ?Subroutine12           00003AE1 
    -------------------------------------------------------------------------
<BANKED_CODE> 1 (was BANKED_CODE)
  Relative segment, address: CODE 00003AED - 00003CDE (0x1f2 bytes), align: 0
  Segment part 51.            Intra module refs:   InputBitStream::SetBuffer(Array<uint8_t> const &)::?relay
           ENTRY                   ADDRESS         REF BY
           =====                   =======         ======
           InputBitStream::SetBuffer(Array<uint8_t> const &)
                                   00003AED 
               calls direct
               XSTACK = 00000000 ( 0000001E )
    -------------------------------------------------------------------------
<BANKED_CODE> 1 (was BANKED_CODE)
  Relative segment, address: CODE 00003CDF - 00003CE2 (0x4 bytes), align: 0
  Segment part 53.            Intra module refs:   InputBitStream::SetBuffer(Array<uint8_t> const &)
           LOCAL                   ADDRESS         
           =====                   =======         
           ?Subroutine14           00003CDF 
    -------------------------------------------------------------------------
<BANKED_CODE> 1 (was BANKED_CODE)
  Relative segment, address: CODE 00003CE3 - 00003CEB (0x9 bytes), align: 0
  Segment part 54.            Intra module refs:   ?Subroutine10
                                                   ?Subroutine13
                                                   ?Subroutine14
                                                   ?Subroutine3
           LOCAL                   ADDRESS         
           =====                   =======         
           ?Subroutine18           00003CE3 
    -------------------------------------------------------------------------
<BANKED_CODE> 1 (was BANKED_CODE)
  Relative segment, address: CODE 00003CEC - 00003CF0 (0x5 bytes), align: 0
  Segment part 55.            Intra module refs:   InputBitStream::SetBuffer(Array<uint8_t> const &)
           LOCAL                   ADDRESS         
           =====                   =======         
           ?Subroutine13           00003CEC 
    -------------------------------------------------------------------------
<BANKED_CODE> 1 (was BANKED_CODE)
  Relative segment, address: CODE 00003CF1 - 00003CF8 (0x8 bytes), align: 0
  Segment part 56.            Intra module refs:   InputBitStream::SetBuffer(Array<uint8_t> const &)
           LOCAL                   ADDRESS         
           =====                   =======         
           ?Subroutine11           00003CF1 
    -------------------------------------------------------------------------
<BANKED_CODE> 1 (was BANKED_CODE)
  Relative segment, address: CODE 00003CF9 - 00003CFB (0x3 bytes), align: 0
  Segment part 57.            Intra module refs:   InputBitStream::SetBuffer(Array<uint8_t> const &)
           LOCAL                   ADDRESS         
           =====                   =======         
           ?Subroutine10           00003CF9 
    -------------------------------------------------------------------------
<BANKED_CODE> 1 (was BANKED_CODE)
  Relative segment, address: CODE 00003CFC - 00003D03 (0x8 bytes), align: 0
  Segment part 58.            Intra module refs:   ?Subroutine10
                                                   InputBitStream::SetBuffer(Array<uint8_t> const &)
    -------------------------------------------------------------------------
<BANKED_CODE> 1 (was BANKED_CODE)
  Relative segment, address: CODE 00003D04 - 00003D2F (0x2c bytes), align: 0
  Segment part 59.            Intra module refs:   InputBitStream::SetBuffer(Array<uint8_t> const &)
           LOCAL                   ADDRESS         
           =====                   =======         
           ?Subroutine3            00003D04 
    -------------------------------------------------------------------------
<BANKED_CODE> 1 (was BANKED_CODE)
  Relative segment, address: CODE 00003D30 - 00003D37 (0x8 bytes), align: 0
  Segment part 60.            Intra module refs:   ?Subroutine3
                                                   Segment part 24
                                                   Segment part 30
           LOCAL                   ADDRESS         
           =====                   =======         
           ?Subroutine17           00003D30 
    -------------------------------------------------------------------------
<BANKED_CODE> 1 (was BANKED_CODE)
  Relative segment, address: CODE 00003D38 - 00003D3D (0x6 bytes), align: 0
  Segment part 61.            Intra module refs:   ?Subroutine3
           LOCAL                   ADDRESS         
           =====                   =======         
           ?Subroutine16           00003D38 
    -------------------------------------------------------------------------
<BANKED_CODE> 1 (was BANKED_CODE)
  Relative segment, address: CODE 00003D3E - 00003D51 (0x14 bytes), align: 0
  Segment part 62.            Intra module refs:   ?Subroutine16
                                                   ?Subroutine3
    -------------------------------------------------------------------------
<BANKED_CODE> 1 (was BANKED_CODE)
  Relative segment, address: CODE 00003D52 - 00003D5B (0xa bytes), align: 0
  Segment part 65.            Intra module refs:   InputBitStream::HasMoreData() const
           LOCAL                   ADDRESS         
           =====                   =======         
           ?Subroutine8            00003D52 
    -------------------------------------------------------------------------
<BANKED_CODE> 1 (was BANKED_CODE)
  Relative segment, address: CODE 00003D5C - 00003E2E (0xd3 bytes), align: 0
  Segment part 66.            Intra module refs:   Array<uint32_t>::operator=(Array<uint32_t> const &)::?relay
           ENTRY                   ADDRESS         REF BY
           =====                   =======         ======
           Array<uint32_t>::operator=(Array<uint32_t> const &)
                                   00003D5C 
               calls direct
               XSTACK = 0000001C ( 00000010 )
    -------------------------------------------------------------------------
XDATA_ID
  Relative segment, address: CODE 00000462 - 00000498 (0x37 bytes), align: 0
  Segment part 7.             Intra module refs:   Segment part 6
    -------------------------------------------------------------------------
XDATA_ID
  Relative segment, address: CODE 00000499 - 0000049C (0x4 bytes), align: 0
  Segment part 9.             Intra module refs:   __Constant_21
    -------------------------------------------------------------------------
XDATA_ID
  Relative segment, address: CODE 0000049D - 000004A0 (0x4 bytes), align: 0
  Segment part 13.            Intra module refs:   __Constant_8
    -------------------------------------------------------------------------
XDATA_ID
  Relative segment, address: CODE 000004A1 - 000004A4 (0x4 bytes), align: 0
  Segment part 15.            Intra module refs:   __Constant_fffffff8
    -------------------------------------------------------------------------
XDATA_ID
  Relative segment, address: CODE 000004A5 - 000004A8 (0x4 bytes), align: 0
  Segment part 17.            Intra module refs:   __Constant_3e800000
    -------------------------------------------------------------------------
BANK_RELAYS
  Relative segment, address: CODE 00000592 - 00000597 (0x6 bytes), align: 0
  Segment part 21.
           ENTRY                   ADDRESS         REF BY
           =====                   =======         ======
           InputBitStream::InputBitStream()::?relay
                                   00000592        NetSerfQtDecompressor::NetSerfQtDecompressor(double) (net_serf_qt_decompressor)
    -------------------------------------------------------------------------
BANK_RELAYS
  Relative segment, address: CODE 00000598 - 0000059D (0x6 bytes), align: 0
  Segment part 34.            Intra module refs:   ?Subroutine1
                                                   InputBitStream::ReadBit()
           ENTRY                   ADDRESS         REF BY
           =====                   =======         ======
           InputBitStream::Peek(uint32_t)::?relay
                                   00000598 
    -------------------------------------------------------------------------
BANK_RELAYS
  Relative segment, address: CODE 0000059E - 000005A3 (0x6 bytes), align: 0
  Segment part 39.            Intra module refs:   ?Subroutine1
                                                   InputBitStream::ReadBit()
           ENTRY                   ADDRESS         REF BY
           =====                   =======         ======
           InputBitStream::Forward(uint32_t)::?relay
                                   0000059E 
    -------------------------------------------------------------------------
BANK_RELAYS
  Relative segment, address: CODE 000005A4 - 000005A9 (0x6 bytes), align: 0
  Segment part 44.
           ENTRY                   ADDRESS         REF BY
           =====                   =======         ======
           InputBitStream::ReadInt(uint32_t)::?relay
                                   000005A4        EliasGammaCodec::Decode(InputBitStream *) (elias_gamma_codec)
                                                   NetSerfQtDecompressor::Decompress(Array<uint8_t> &) (net_serf_qt_decompressor)
    -------------------------------------------------------------------------
BANK_RELAYS
  Relative segment, address: CODE 000005AA - 000005AF (0x6 bytes), align: 0
  Segment part 46.
           ENTRY                   ADDRESS         REF BY
           =====                   =======         ======
           InputBitStream::ReadBit()::?relay
                                   000005AA        EliasGammaCodec::Decode(InputBitStream *) (elias_gamma_codec)
    -------------------------------------------------------------------------
BANK_RELAYS
  Relative segment, address: CODE 000005B0 - 000005B5 (0x6 bytes), align: 0
  Segment part 49.
           ENTRY                   ADDRESS         REF BY
           =====                   =======         ======
           InputBitStream::HasMoreData() const::?relay
                                   000005B0        EliasGammaCodec::Decode(InputBitStream *) (elias_gamma_codec)
    -------------------------------------------------------------------------
BANK_RELAYS
  Relative segment, address: CODE 000005B6 - 000005BB (0x6 bytes), align: 0
  Segment part 52.
           ENTRY                   ADDRESS         REF BY
           =====                   =======         ======
           InputBitStream::SetBuffer(Array<uint8_t> const &)::?relay
                                   000005B6        NetSerfQtDecompressor::Decompress(Array<uint8_t> &) (net_serf_qt_decompressor)
    -------------------------------------------------------------------------
BANK_RELAYS
  Relative segment, address: CODE 000005BC - 000005C1 (0x6 bytes), align: 0
  Segment part 67.            Intra module refs:   InputBitStream::SetBuffer(Array<uint8_t> const &)
           ENTRY                   ADDRESS         REF BY
           =====                   =======         ======
           Array<uint32_t>::operator=(Array<uint32_t> const &)::?relay
                                   000005BC 
    -------------------------------------------------------------------------
XDATA_I
  Relative segment, address: XDATA 00000DB7 - 00000DED (0x37 bytes), align: 0
  Segment part 6.             Intra module refs:   InputBitStream::SetBuffer(Array<uint8_t> const &)
    -------------------------------------------------------------------------
XDATA_I
  Relative segment, address: XDATA 00000DEE - 00000DF1 (0x4 bytes), align: 0
  Segment part 8.             Intra module refs:   InputBitStream::Peek(uint32_t)
                                                   OutputBitStream::Write(uint32_t, uint32_t) (output_bit_stream)
           ENTRY                   ADDRESS         REF BY
           =====                   =======         ======
           __Constant_21           00000DEE 
    -------------------------------------------------------------------------
XDATA_I
  Relative segment, address: XDATA 00000DF2 - 00000DF5 (0x4 bytes), align: 0
  Segment part 12.            Intra module refs:   InputBitStream::Forward(uint32_t)
                                                   InputBitStream::Peek(uint32_t)
                                                   OutputBitStream::Write(uint32_t, uint32_t) (output_bit_stream)
           ENTRY                   ADDRESS         REF BY
           =====                   =======         ======
           __Constant_8            00000DF2 
    -------------------------------------------------------------------------
XDATA_I
  Relative segment, address: XDATA 00000DF6 - 00000DF9 (0x4 bytes), align: 0
  Segment part 14.            Intra module refs:   InputBitStream::Forward(uint32_t)
           ENTRY                   ADDRESS         REF BY
           =====                   =======         ======
           __Constant_fffffff8     00000DF6 
    -------------------------------------------------------------------------
XDATA_I
  Relative segment, address: XDATA 00000DFA - 00000DFD (0x4 bytes), align: 0
  Segment part 16.            Intra module refs:   InputBitStream::SetBuffer(Array<uint8_t> const &)
           ENTRY                   ADDRESS         REF BY
           =====                   =======         ======
           __Constant_3e800000     00000DFA 

    *************************************************************************

  FILE NAME : E:\实验室Start\TrajectoryCompression\Serf_Embedded\Debug\Obj\net_serf_qt_compressor.r51
  PROGRAM MODULE, NAME : net_serf_qt_compressor

  SEGMENTS IN THE MODULE
  ======================
<BANKED_CODE> 1 (was BANKED_CODE)
  Relative segment, address: CODE 0000476A - 0000476E (0x5 bytes), align: 0
  Segment part 22.            Intra module refs:   NetSerfQtCompressor::Compress(double)
                                                   NetSerfQtCompressor::NetSerfQtCompressor(double)
           LOCAL                   ADDRESS         
           =====                   =======         
           ?Subroutine0            0000476A 
    -------------------------------------------------------------------------
<BANKED_CODE> 1 (was BANKED_CODE)
  Relative segment, address: CODE 0000476F - 00004773 (0x5 bytes), align: 0
  Segment part 25.            Intra module refs:   NetSerfQtCompressor::~NetSerfQtCompressor()
           LOCAL                   ADDRESS         
           =====                   =======         
           ?Subroutine1            0000476F 
    -------------------------------------------------------------------------
<BANKED_CODE> 1 (was BANKED_CODE)
  Relative segment, address: CODE 00004774 - 000047AC (0x39 bytes), align: 0
  Segment part 26.            Intra module refs:   NetSerfQtCompressor::NetSerfQtCompressor(double)::?relay
           ENTRY                   ADDRESS         REF BY
           =====                   =======         ======
           NetSerfQtCompressor::NetSerfQtCompressor(double)
                                   00004774 
               calls direct
               XSTACK = 00000004 ( 00000010 )
    -------------------------------------------------------------------------
<BANKED_CODE> 1 (was BANKED_CODE)
  Relative segment, address: CODE 000047AD - 000047C2 (0x16 bytes), align: 0
  Segment part 28.            Intra module refs:   NetSerfQtCompressor::NetSerfQtCompressor(double)
           LOCAL                   ADDRESS         
           =====                   =======         
           ?Subroutine4            000047AD 
    -------------------------------------------------------------------------
<BANKED_CODE> 1 (was BANKED_CODE)
  Relative segment, address: CODE 000047C3 - 000047D8 (0x16 bytes), align: 0
  Segment part 29.            Intra module refs:   NetSerfQtCompressor::NetSerfQtCompressor(double)
           LOCAL                   ADDRESS         
           =====                   =======         
           ?Subroutine2            000047C3 
    -------------------------------------------------------------------------
<BANKED_CODE> 1 (was BANKED_CODE)
  Relative segment, address: CODE 000047D9 - 0000480A (0x32 bytes), align: 0
  Segment part 30.            Intra module refs:   NetSerfQtCompressor::~NetSerfQtCompressor()::?relay
           ENTRY                   ADDRESS         REF BY
           =====                   =======         ======
           NetSerfQtCompressor::~NetSerfQtCompressor()
                                   000047D9 
               calls direct
               XSTACK = 00000009 ( 00000009 )
    -------------------------------------------------------------------------
<BANKED_CODE> 1 (was BANKED_CODE)
  Relative segment, address: CODE 0000480B - 000049C7 (0x1bd bytes), align: 0
  Segment part 32.            Intra module refs:   NetSerfQtCompressor::Compress(double)::?relay
           ENTRY                   ADDRESS         REF BY
           =====                   =======         ======
           NetSerfQtCompressor::Compress(double)
                                   0000480B 
               calls direct
               XSTACK = 00000004 ( 0000002A )
    -------------------------------------------------------------------------
<BANKED_CODE> 1 (was BANKED_CODE)
  Relative segment, address: CODE 000049C8 - 000049D1 (0xa bytes), align: 0
  Segment part 34.            Intra module refs:   NetSerfQtCompressor::Compress(double)
           LOCAL                   ADDRESS         
           =====                   =======         
           ?Subroutine3            000049C8 
    -------------------------------------------------------------------------
<BANKED_CODE> 1 (was BANKED_CODE)
  Relative segment, address: CODE 000049D2 - 000049D9 (0x8 bytes), align: 0
  Segment part 35.            Intra module refs:   ?Subroutine3
                                                   NetSerfQtCompressor::~NetSerfQtCompressor()
    -------------------------------------------------------------------------
XDATA_I
  Relative segment, address: XDATA 00000DFE - 00000E01 (0x4 bytes), align: 0
  Segment part 6.             Intra module refs:   NetSerfQtCompressor::NetSerfQtCompressor(double)
                                                   NetSerfQtDecompressor::NetSerfQtDecompressor(double) (net_serf_qt_decompressor)
           ENTRY                   ADDRESS         REF BY
           =====                   =======         ======
           __Constant_3f7fbe77     00000DFE 
    -------------------------------------------------------------------------
XDATA_ID
  Relative segment, address: CODE 000004A9 - 000004AC (0x4 bytes), align: 0
  Segment part 7.             Intra module refs:   __Constant_3f7fbe77
    -------------------------------------------------------------------------
XDATA_I
  Relative segment, address: XDATA 00000E02 - 00000E05 (0x4 bytes), align: 0
  Segment part 8.             Intra module refs:   ?Subroutine2
           ENTRY                   ADDRESS         REF BY
           =====                   =======         ======
           __Constant_10           00000E02 
    -------------------------------------------------------------------------
XDATA_ID
  Relative segment, address: CODE 000004AD - 000004B0 (0x4 bytes), align: 0
  Segment part 9.             Intra module refs:   __Constant_10
    -------------------------------------------------------------------------
XDATA_I
  Relative segment, address: XDATA 00000E06 - 00000E09 (0x4 bytes), align: 0
  Segment part 10.            Intra module refs:   NetSerfQtCompressor::Compress(double)
                                                   NetSerfQtDecompressor::Decompress(Array<uint8_t> &) (net_serf_qt_decompressor)
           ENTRY                   ADDRESS         REF BY
           =====                   =======         ======
           __Constant_4            00000E06 
    -------------------------------------------------------------------------
XDATA_ID
  Relative segment, address: CODE 000004B1 - 000004B4 (0x4 bytes), align: 0
  Segment part 11.            Intra module refs:   __Constant_4
    -------------------------------------------------------------------------
XDATA_I
  Relative segment, address: XDATA 00000E0A - 00000E0D (0x4 bytes), align: 0
  Segment part 14.            Intra module refs:   NetSerfQtCompressor::Compress(double)
                                                   NetSerfQtDecompressor::Decompress(Array<uint8_t> &) (net_serf_qt_decompressor)
                                                   __iar_Log (?xlog)
           ENTRY                   ADDRESS         REF BY
           =====                   =======         ======
           __Constant_40000000     00000E0A 
    -------------------------------------------------------------------------
XDATA_ID
  Relative segment, address: CODE 000004B5 - 000004B8 (0x4 bytes), align: 0
  Segment part 15.            Intra module refs:   __Constant_40000000
    -------------------------------------------------------------------------
XDATA_I
  Relative segment, address: XDATA 00000E0E - 00000E11 (0x4 bytes), align: 0
  Segment part 18.            Intra module refs:   NetSerfQtCompressor::Compress(double)
           ENTRY                   ADDRESS         REF BY
           =====                   =======         ======
           __Constant_3e000000     00000E0E 
    -------------------------------------------------------------------------
XDATA_ID
  Relative segment, address: CODE 000004B9 - 000004BC (0x4 bytes), align: 0
  Segment part 19.            Intra module refs:   __Constant_3e000000
    -------------------------------------------------------------------------
BANK_RELAYS
  Relative segment, address: CODE 000005C2 - 000005C7 (0x6 bytes), align: 0
  Segment part 27.
           ENTRY                   ADDRESS         REF BY
           =====                   =======         ======
           NetSerfQtCompressor::NetSerfQtCompressor(double)::?relay
                                   000005C2        test_net_serf_qt_streaming() (iar_serf_test)
    -------------------------------------------------------------------------
BANK_RELAYS
  Relative segment, address: CODE 000005C8 - 000005CD (0x6 bytes), align: 0
  Segment part 31.
           ENTRY                   ADDRESS         REF BY
           =====                   =======         ======
           NetSerfQtCompressor::~NetSerfQtCompressor()::?relay
                                   000005C8        test_net_serf_qt_streaming() (iar_serf_test)
    -------------------------------------------------------------------------
BANK_RELAYS
  Relative segment, address: CODE 000005CE - 000005D3 (0x6 bytes), align: 0
  Segment part 33.
           ENTRY                   ADDRESS         REF BY
           =====                   =======         ======
           NetSerfQtCompressor::Compress(double)::?relay
                                   000005CE        test_net_serf_qt_streaming() (iar_serf_test)

    *************************************************************************

  FILE NAME : E:\实验室Start\TrajectoryCompression\Serf_Embedded\Debug\Obj\net_serf_qt_decompressor.r51
  PROGRAM MODULE, NAME : net_serf_qt_decompressor

  SEGMENTS IN THE MODULE
  ======================
<BANKED_CODE> 1 (was BANKED_CODE)
  Relative segment, address: CODE 00004BF9 - 00004BFD (0x5 bytes), align: 0
  Segment part 20.            Intra module refs:   NetSerfQtDecompressor::~NetSerfQtDecompressor()
           LOCAL                   ADDRESS         
           =====                   =======         
           ?Subroutine0            00004BF9 
    -------------------------------------------------------------------------
<BANKED_CODE> 1 (was BANKED_CODE)
  Relative segment, address: CODE 00004BFE - 00004C6B (0x6e bytes), align: 0
  Segment part 21.            Intra module refs:   NetSerfQtDecompressor::NetSerfQtDecompressor(double)::?relay
           ENTRY                   ADDRESS         REF BY
           =====                   =======         ======
           NetSerfQtDecompressor::NetSerfQtDecompressor(double)
                                   00004BFE 
               calls direct
               XSTACK = 00000012 ( 00000010 )
    -------------------------------------------------------------------------
<BANKED_CODE> 1 (was BANKED_CODE)
  Relative segment, address: CODE 00004C6C - 00004C70 (0x5 bytes), align: 0
  Segment part 23.            Intra module refs:   NetSerfQtDecompressor::Decompress(Array<uint8_t> &)
                                                   NetSerfQtDecompressor::NetSerfQtDecompressor(double)
           LOCAL                   ADDRESS         
           =====                   =======         
           ?Subroutine1            00004C6C 
    -------------------------------------------------------------------------
<BANKED_CODE> 1 (was BANKED_CODE)
  Relative segment, address: CODE 00004C71 - 00004CA4 (0x34 bytes), align: 0
  Segment part 24.            Intra module refs:   NetSerfQtDecompressor::~NetSerfQtDecompressor()::?relay
           ENTRY                   ADDRESS         REF BY
           =====                   =======         ======
           NetSerfQtDecompressor::~NetSerfQtDecompressor()
                                   00004C71 
               calls direct
               XSTACK = 00000009 ( 00000009 )
    -------------------------------------------------------------------------
<BANKED_CODE> 1 (was BANKED_CODE)
  Relative segment, address: CODE 00004CA5 - 00004D8B (0xe7 bytes), align: 0
  Segment part 26.            Intra module refs:   NetSerfQtDecompressor::Decompress(Array<uint8_t> &)::?relay
           ENTRY                   ADDRESS         REF BY
           =====                   =======         ======
           NetSerfQtDecompressor::Decompress(Array<uint8_t> &)
                                   00004CA5 
               calls direct
               XSTACK = 00000000 ( 00000018 )
               ISTACK = 00000000 ( 00000004 )
    -------------------------------------------------------------------------
<BANKED_CODE> 1 (was BANKED_CODE)
  Relative segment, address: CODE 00004D8C - 00004D8F (0x4 bytes), align: 0
  Segment part 28.            Intra module refs:   NetSerfQtDecompressor::Decompress(Array<uint8_t> &)
           LOCAL                   ADDRESS         
           =====                   =======         
           ?Subroutine2            00004D8C 
    -------------------------------------------------------------------------
<BANKED_CODE> 1 (was BANKED_CODE)
  Relative segment, address: CODE 00004D90 - 00004D95 (0x6 bytes), align: 0
  Segment part 29.            Intra module refs:   ?Subroutine2
                                                   NetSerfQtDecompressor::~NetSerfQtDecompressor()
    -------------------------------------------------------------------------
XDATA_I
  Relative segment, address: XDATA 00000E12 - 00000E15 (0x4 bytes), align: 0
  Segment part 10.            Intra module refs:   NetSerfQtDecompressor::Decompress(Array<uint8_t> &)
           ENTRY                   ADDRESS         REF BY
           =====                   =======         ======
           __Constant_ffffffff     00000E12 
    -------------------------------------------------------------------------
XDATA_ID
  Relative segment, address: CODE 000004BD - 000004C0 (0x4 bytes), align: 0
  Segment part 11.            Intra module refs:   __Constant_ffffffff
    -------------------------------------------------------------------------
BANK_RELAYS
  Relative segment, address: CODE 000005D4 - 000005D9 (0x6 bytes), align: 0
  Segment part 22.
           ENTRY                   ADDRESS         REF BY
           =====                   =======         ======
           NetSerfQtDecompressor::NetSerfQtDecompressor(double)::?relay
                                   000005D4        test_net_serf_qt_streaming() (iar_serf_test)
    -------------------------------------------------------------------------
BANK_RELAYS
  Relative segment, address: CODE 000005DA - 000005DF (0x6 bytes), align: 0
  Segment part 25.
           ENTRY                   ADDRESS         REF BY
           =====                   =======         ======
           NetSerfQtDecompressor::~NetSerfQtDecompressor()::?relay
                                   000005DA        test_net_serf_qt_streaming() (iar_serf_test)
    -------------------------------------------------------------------------
BANK_RELAYS
  Relative segment, address: CODE 000005E0 - 000005E5 (0x6 bytes), align: 0
  Segment part 27.
           ENTRY                   ADDRESS         REF BY
           =====                   =======         ======
           NetSerfQtDecompressor::Decompress(Array<uint8_t> &)::?relay
                                   000005E0        test_net_serf_qt_streaming() (iar_serf_test)

    *************************************************************************

  FILE NAME : E:\实验室Start\TrajectoryCompression\Serf_Embedded\Debug\Obj\output_bit_stream.r51
  PROGRAM MODULE, NAME : output_bit_stream

  SEGMENTS IN THE MODULE
  ======================
<BANKED_CODE> 1 (was BANKED_CODE)
  Relative segment, address: CODE 00003E2F - 00003E59 (0x2b bytes), align: 0
  Segment part 14.            Intra module refs:   OutputBitStream::new OutputBitStream(uint32_t)::?relay
           ENTRY                   ADDRESS         REF BY
           =====                   =======         ======
           OutputBitStream::new OutputBitStream(uint32_t)
                                   00003E2F 
               calls direct
               XSTACK = 00000000 ( 00000012 )
    -------------------------------------------------------------------------
<BANKED_CODE> 1 (was BANKED_CODE)
  Relative segment, address: CODE 00003E5A - 00003E5E (0x5 bytes), align: 0
  Segment part 16.            Intra module refs:   OutputBitStream::Flush()
                                                   OutputBitStream::new OutputBitStream(uint32_t)
           LOCAL                   ADDRESS         
           =====                   =======         
           ?Subroutine0            00003E5A 
    -------------------------------------------------------------------------
<BANKED_CODE> 1 (was BANKED_CODE)
  Relative segment, address: CODE 00003E5F - 00003F99 (0x13b bytes), align: 0
  Segment part 17.            Intra module refs:   OutputBitStream::OutputBitStream(uint32_t)::?relay
           ENTRY                   ADDRESS         REF BY
           =====                   =======         ======
           OutputBitStream::OutputBitStream(uint32_t)
                                   00003E5F 
               calls direct
               XSTACK = 00000012 ( 00000014 )
    -------------------------------------------------------------------------
<BANKED_CODE> 1 (was BANKED_CODE)
  Relative segment, address: CODE 00003F9A - 00003F9D (0x4 bytes), align: 0
  Segment part 19.            Intra module refs:   OutputBitStream::OutputBitStream(uint32_t)
                                                   OutputBitStream::Refresh()
           LOCAL                   ADDRESS         
           =====                   =======         
           ?Subroutine6            00003F9A 
    -------------------------------------------------------------------------
<BANKED_CODE> 1 (was BANKED_CODE)
  Relative segment, address: CODE 00003F9E - 00003FA1 (0x4 bytes), align: 0
  Segment part 20.            Intra module refs:   ?Subroutine6
                                                   OutputBitStream::Flush()
                                                   OutputBitStream::Write(uint32_t, uint32_t)
    -------------------------------------------------------------------------
<BANKED_CODE> 1 (was BANKED_CODE)
  Relative segment, address: CODE 00003FA2 - 00003FAF (0xe bytes), align: 0
  Segment part 21.            Intra module refs:   OutputBitStream::OutputBitStream(uint32_t)
           LOCAL                   ADDRESS         
           =====                   =======         
           ?Subroutine4            00003FA2 
    -------------------------------------------------------------------------
<BANKED_CODE> 1 (was BANKED_CODE)
  Relative segment, address: CODE 00003FB0 - 00004106 (0x157 bytes), align: 0
  Segment part 22.            Intra module refs:   OutputBitStream::Write(uint32_t, uint32_t)::?relay
           ENTRY                   ADDRESS         REF BY
           =====                   =======         ======
           OutputBitStream::Write(uint32_t, uint32_t)
                                   00003FB0 
               XSTACK = 00000008 ( 00000016 )
               ISTACK = 00000000 ( 00000004 )
    -------------------------------------------------------------------------
<BANKED_CODE> 1 (was BANKED_CODE)
  Relative segment, address: CODE 00004107 - 0000410F (0x9 bytes), align: 0
  Segment part 24.            Intra module refs:   OutputBitStream::OutputBitStream(uint32_t)
                                                   OutputBitStream::Write(uint32_t, uint32_t)
           LOCAL                   ADDRESS         
           =====                   =======         
           ?Subroutine7            00004107 
    -------------------------------------------------------------------------
<BANKED_CODE> 1 (was BANKED_CODE)
  Relative segment, address: CODE 00004110 - 00004111 (0x2 bytes), align: 0
  Segment part 25.            Intra module refs:   OutputBitStream::GetBuffer(uint32_t)
                                                   OutputBitStream::OutputBitStream(uint32_t)
           LOCAL                   ADDRESS         
           =====                   =======         
           ?Subroutine1            00004110 
    -------------------------------------------------------------------------
<BANKED_CODE> 1 (was BANKED_CODE)
  Relative segment, address: CODE 00004112 - 00004114 (0x3 bytes), align: 0
  Segment part 26.            Intra module refs:   ?Subroutine1
                                                   OutputBitStream::Write(uint32_t, uint32_t)
    -------------------------------------------------------------------------
<BANKED_CODE> 1 (was BANKED_CODE)
  Relative segment, address: CODE 00004115 - 00004119 (0x5 bytes), align: 0
  Segment part 27.            Intra module refs:   Segment part 26
    -------------------------------------------------------------------------
<BANKED_CODE> 1 (was BANKED_CODE)
  Relative segment, address: CODE 0000411A - 0000413C (0x23 bytes), align: 0
  Segment part 30.            Intra module refs:   OutputBitStream::WriteInt(uint32_t, uint32_t)
           LOCAL                   ADDRESS         
           =====                   =======         
           ?Subroutine2            0000411A 
    -------------------------------------------------------------------------
<BANKED_CODE> 1 (was BANKED_CODE)
  Relative segment, address: CODE 0000413D - 0000413E (0x2 bytes), align: 0
  Segment part 31.            Intra module refs:   OutputBitStream::WriteInt(uint32_t, uint32_t)::?relay
           ENTRY                   ADDRESS         REF BY
           =====                   =======         ======
           OutputBitStream::WriteInt(uint32_t, uint32_t)
                                   0000413D 
               calls direct
               XSTACK = 00000008 ( 00000008 )
               ISTACK = 00000000 ( 00000002 )
    -------------------------------------------------------------------------
<BANKED_CODE> 1 (was BANKED_CODE)
  Relative segment, address: CODE 0000413F - 0000414D (0xf bytes), align: 0
  Segment part 35.            Intra module refs:   OutputBitStream::Write(uint32_t, uint32_t)
           LOCAL                   ADDRESS         
           =====                   =======         
           ?Subroutine3            0000413F 
    -------------------------------------------------------------------------
<BANKED_CODE> 1 (was BANKED_CODE)
  Relative segment, address: CODE 0000414E - 0000414E (0x1 bytes), align: 0
  Segment part 36.            Intra module refs:   ?Subroutine3
                                                   ?Subroutine5
           LOCAL                   ADDRESS         
           =====                   =======         
           ?Subroutine10           0000414E 
    -------------------------------------------------------------------------
<BANKED_CODE> 1 (was BANKED_CODE)
  Relative segment, address: CODE 0000414F - 00004156 (0x8 bytes), align: 0
  Segment part 37.            Intra module refs:   ?Subroutine10
                                                   ?Subroutine3
                                                   ?Subroutine4
                                                   Segment part 20
    -------------------------------------------------------------------------
<BANKED_CODE> 1 (was BANKED_CODE)
  Relative segment, address: CODE 00004157 - 000041D9 (0x83 bytes), align: 0
  Segment part 38.            Intra module refs:   OutputBitStream::Flush()::?relay
           ENTRY                   ADDRESS         REF BY
           =====                   =======         ======
           OutputBitStream::Flush()
                                   00004157 
               XSTACK = 00000012 ( 0000000E )
               ISTACK = 00000000 ( 00000001 )
    -------------------------------------------------------------------------
<BANKED_CODE> 1 (was BANKED_CODE)
  Relative segment, address: CODE 000041DA - 000041E4 (0xb bytes), align: 0
  Segment part 40.            Intra module refs:   OutputBitStream::Flush()
           LOCAL                   ADDRESS         
           =====                   =======         
           ?Subroutine9            000041DA 
    -------------------------------------------------------------------------
<BANKED_CODE> 1 (was BANKED_CODE)
  Relative segment, address: CODE 000041E5 - 000042BA (0xd6 bytes), align: 0
  Segment part 41.            Intra module refs:   OutputBitStream::GetBuffer(uint32_t)::?relay
           ENTRY                   ADDRESS         REF BY
           =====                   =======         ======
           OutputBitStream::GetBuffer(uint32_t)
                                   000041E5 
               calls direct
               XSTACK = 00000004 ( 00000014 )
    -------------------------------------------------------------------------
<BANKED_CODE> 1 (was BANKED_CODE)
  Relative segment, address: CODE 000042BB - 000042C0 (0x6 bytes), align: 0
  Segment part 43.            Intra module refs:   OutputBitStream::OutputBitStream(uint32_t)
           LOCAL                   ADDRESS         
           =====                   =======         
           ?Subroutine8            000042BB 
    -------------------------------------------------------------------------
<BANKED_CODE> 1 (was BANKED_CODE)
  Relative segment, address: CODE 000042C1 - 000042C8 (0x8 bytes), align: 0
  Segment part 44.            Intra module refs:   ?Subroutine8
                                                   OutputBitStream::GetBuffer(uint32_t)
                                                   OutputBitStream::OutputBitStream(uint32_t)
                                                   OutputBitStream::Refresh()
    -------------------------------------------------------------------------
<BANKED_CODE> 1 (was BANKED_CODE)
  Relative segment, address: CODE 000042C9 - 00004320 (0x58 bytes), align: 0
  Segment part 47.            Intra module refs:   OutputBitStream::Refresh()::?relay
           ENTRY                   ADDRESS         REF BY
           =====                   =======         ======
           OutputBitStream::Refresh()
                                   000042C9 
               calls direct
               XSTACK = 00000000 ( 0000000C )
    -------------------------------------------------------------------------
<BANKED_CODE> 1 (was BANKED_CODE)
  Relative segment, address: CODE 00004321 - 0000432A (0xa bytes), align: 0
  Segment part 49.            Intra module refs:   OutputBitStream::Refresh()
           LOCAL                   ADDRESS         
           =====                   =======         
           ?Subroutine5            00004321 
    -------------------------------------------------------------------------
XDATA_ID
  Relative segment, address: CODE 000004C1 - 000004F8 (0x38 bytes), align: 0
  Segment part 7.             Intra module refs:   Segment part 6
    -------------------------------------------------------------------------
BANK_RELAYS
  Relative segment, address: CODE 000005E6 - 000005EB (0x6 bytes), align: 0
  Segment part 15.
           ENTRY                   ADDRESS         REF BY
           =====                   =======         ======
           OutputBitStream::new OutputBitStream(uint32_t)::?relay
                                   000005E6        NetSerfQtCompressor::NetSerfQtCompressor(double) (net_serf_qt_compressor)
    -------------------------------------------------------------------------
BANK_RELAYS
  Relative segment, address: CODE 000005EC - 000005F1 (0x6 bytes), align: 0
  Segment part 18.            Intra module refs:   OutputBitStream::new OutputBitStream(uint32_t)
           ENTRY                   ADDRESS         REF BY
           =====                   =======         ======
           OutputBitStream::OutputBitStream(uint32_t)::?relay
                                   000005EC 
    -------------------------------------------------------------------------
BANK_RELAYS
  Relative segment, address: CODE 000005F2 - 000005F7 (0x6 bytes), align: 0
  Segment part 23.            Intra module refs:   ?Subroutine2
           ENTRY                   ADDRESS         REF BY
           =====                   =======         ======
           OutputBitStream::Write(uint32_t, uint32_t)::?relay
                                   000005F2 
    -------------------------------------------------------------------------
BANK_RELAYS
  Relative segment, address: CODE 000005F8 - 000005FD (0x6 bytes), align: 0
  Segment part 32.
           ENTRY                   ADDRESS         REF BY
           =====                   =======         ======
           OutputBitStream::WriteInt(uint32_t, uint32_t)::?relay
                                   000005F8        EliasGammaCodec::Encode(long, OutputBitStream *) (elias_gamma_codec)
                                                   NetSerfQtCompressor::Compress(double) (net_serf_qt_compressor)
    -------------------------------------------------------------------------
BANK_RELAYS
  Relative segment, address: CODE 000005FE - 00000603 (0x6 bytes), align: 0
  Segment part 39.            Intra module refs:   OutputBitStream::GetBuffer(uint32_t)
           ENTRY                   ADDRESS         REF BY
           =====                   =======         ======
           OutputBitStream::Flush()::?relay
                                   000005FE        NetSerfQtCompressor::Compress(double) (net_serf_qt_compressor)
    -------------------------------------------------------------------------
BANK_RELAYS
  Relative segment, address: CODE 00000604 - 00000609 (0x6 bytes), align: 0
  Segment part 42.
           ENTRY                   ADDRESS         REF BY
           =====                   =======         ======
           OutputBitStream::GetBuffer(uint32_t)::?relay
                                   00000604        NetSerfQtCompressor::Compress(double) (net_serf_qt_compressor)
    -------------------------------------------------------------------------
BANK_RELAYS
  Relative segment, address: CODE 0000060A - 0000060F (0x6 bytes), align: 0
  Segment part 48.
           ENTRY                   ADDRESS         REF BY
           =====                   =======         ======
           OutputBitStream::Refresh()::?relay
                                   0000060A        NetSerfQtCompressor::Compress(double) (net_serf_qt_compressor)
    -------------------------------------------------------------------------
XDATA_I
  Relative segment, address: XDATA 00000E16 - 00000E4D (0x38 bytes), align: 0
  Segment part 6.             Intra module refs:   OutputBitStream::OutputBitStream(uint32_t)

    *************************************************************************

  FILE NAME : E:\实验室Start\TrajectoryCompression\Serf_Embedded\Debug\Obj\serf_qt_compressor.r51
    *************************************************************************

  FILE NAME : E:\实验室Start\TrajectoryCompression\Serf_Embedded\Debug\Obj\serf_qt_decompressor.r51
    *************************************************************************

  FILE NAME : E:\实验室Start\IAR\8051\LIB\DLIB\dl-pli-blxd-1e16x01n.r51
  LIBRARY MODULE, NAME : ?abort

  SEGMENTS IN THE MODULE
  ======================
<BANKED_CODE> 1 (was BANKED_CODE)
  Relative segment, address: CODE 00005822 - 0000583C (0x1b bytes), align: 0
  Segment part 6.             Intra module refs:   abort::?relay
           ENTRY                   ADDRESS         REF BY
           =====                   =======         ======
           abort                   00005822 
               calls direct
               ISTACK = 00000000 ( 00000002 )
    -------------------------------------------------------------------------
BANK_RELAYS
  Relative segment, address: CODE 00000610 - 00000615 (0x6 bytes), align: 0
  Segment part 7.
           ENTRY                   ADDRESS         REF BY
           =====                   =======         ======
           abort::?relay           00000610        _Nomemory() (?nomemory)

    -------------------------------------------------------------------------
  LIBRARY MODULE, NAME : ?__dbg_break

  SEGMENTS IN THE MODULE
  ======================
<BANKED_CODE> 1 (was BANKED_CODE)
  Relative segment, address: CODE 0000586B - 0000586D (0x3 bytes), align: 0
  Segment part 6.             Intra module refs:   __DebugBreak::?relay
           ENTRY                   ADDRESS         REF BY
           =====                   =======         ======
           __DebugBreak            0000586B 
    -------------------------------------------------------------------------
BANK_RELAYS
  Relative segment, address: CODE 00000616 - 0000061B (0x6 bytes), align: 0
  Segment part 7.
           ENTRY                   ADDRESS         REF BY
           =====                   =======         ======
           __DebugBreak::?relay    00000616        __dwrite (?__dwrite)
                                                   __exit (?__exit)
                                                   abort (?abort)

    -------------------------------------------------------------------------
  LIBRARY MODULE, NAME : ?__dwrite

  SEGMENTS IN THE MODULE
  ======================
<BANKED_CODE> 1 (was BANKED_CODE)
  Relative segment, address: CODE 000055BD - 0000560D (0x51 bytes), align: 0
  Segment part 6.             Intra module refs:   __dwrite::?relay
           ENTRY                   ADDRESS         REF BY
           =====                   =======         ======
           __dwrite                000055BD 
               calls direct
               XSTACK = 00000002 ( 00000008 )
               ISTACK = 00000000 ( 00000002 )
    -------------------------------------------------------------------------
BANK_RELAYS
  Relative segment, address: CODE 0000061C - 00000621 (0x6 bytes), align: 0
  Segment part 7.
           ENTRY                   ADDRESS         REF BY
           =====                   =======         ======
           __dwrite::?relay        0000061C        __write (?__write)

    -------------------------------------------------------------------------
  LIBRARY MODULE, NAME : ?__exit

  SEGMENTS IN THE MODULE
  ======================
<BANKED_CODE> 1 (was BANKED_CODE)
  Relative segment, address: CODE 000057E0 - 00005803 (0x24 bytes), align: 0
  Segment part 6.             Intra module refs:   __exit::?relay
           ENTRY                   ADDRESS         REF BY
           =====                   =======         ======
           __exit                  000057E0        Segment part 10 (?cexit)
               calls direct
               XSTACK = 00000000 ( 0000000B )
    -------------------------------------------------------------------------
BANK_RELAYS
  Relative segment, address: CODE 00000622 - 00000627 (0x6 bytes), align: 0
  Segment part 7.
           ENTRY                   ADDRESS         REF BY
           =====                   =======         ======
           __exit::?relay          00000622        abort (?abort)

    -------------------------------------------------------------------------
  LIBRARY MODULE, NAME : ?__write

  SEGMENTS IN THE MODULE
  ======================
<BANKED_CODE> 1 (was BANKED_CODE)
  Relative segment, address: CODE 00005795 - 000057BA (0x26 bytes), align: 0
  Segment part 6.             Intra module refs:   __write::?relay
           ENTRY                   ADDRESS         REF BY
           =====                   =======         ======
           __write                 00005795 
               calls direct
               XSTACK = 00000002 ( 00000002 )
               ISTACK = 00000000 ( 00000002 )
    -------------------------------------------------------------------------
BANK_RELAYS
  Relative segment, address: CODE 00000628 - 0000062D (0x6 bytes), align: 0
  Segment part 7.
           ENTRY                   ADDRESS         REF BY
           =====                   =======         ======
           __write::?relay         00000628        putchar (?putchar)

    -------------------------------------------------------------------------
  LIBRARY MODULE, NAME : ?ceilf

  SEGMENTS IN THE MODULE
  ======================
<BANKED_CODE> 1 (was BANKED_CODE)
  Relative segment, address: CODE 0000537D - 000053F9 (0x7d bytes), align: 0
  Segment part 10.            Intra module refs:   ceilf::?relay
           ENTRY                   ADDRESS         REF BY
           =====                   =======         ======
           ceilf                   0000537D 
               calls direct
               XSTACK = 00000000 ( 00000014 )
    -------------------------------------------------------------------------
XDATA_I
  Relative segment, address: XDATA 00000E4E - 00000E51 (0x4 bytes), align: 0
  Segment part 8.             Intra module refs:   _LdtobLargeNoMb (?xprintflarge_nomb)
                                                   __iar_Log (?xlog)
                                                   ceilf
                                                   roundf (?roundf)
           ENTRY                   ADDRESS         REF BY
           =====                   =======         ======
           __Constant_3f800000     00000E4E 
    -------------------------------------------------------------------------
XDATA_ID
  Relative segment, address: CODE 000004F9 - 000004FC (0x4 bytes), align: 0
  Segment part 9.             Intra module refs:   __Constant_3f800000
    -------------------------------------------------------------------------
BANK_RELAYS
  Relative segment, address: CODE 0000062E - 00000633 (0x6 bytes), align: 0
  Segment part 11.
           ENTRY                   ADDRESS         REF BY
           =====                   =======         ======
           ceilf::?relay           0000062E        InputBitStream::SetBuffer(Array<uint8_t> const &) (input_bit_stream)
                                                   NetSerfQtCompressor::Compress(double) (net_serf_qt_compressor)

    -------------------------------------------------------------------------
  LIBRARY MODULE, NAME : ?cexit

  SEGMENTS IN THE MODULE
  ======================
CSTART
  Relative segment, address: CODE 00000003, align: 0
  Segment part 5.             Intra module refs:   _exit::?relay
           ENTRY                   ADDRESS         REF BY
           =====                   =======         ======
           _exit                   00000003 
               calls direct
    -------------------------------------------------------------------------
CSTART
  Relative segment, address: CODE 00000003 - 0000000D (0xb bytes), align: 0
  Segment part 10.            Intra module refs:   _exit
    -------------------------------------------------------------------------
BANK_RELAYS
  Relative segment, address: CODE 00000634 - 00000639 (0x6 bytes), align: 0
  Segment part 11.
           ENTRY                   ADDRESS         REF BY
           =====                   =======         ======
           _exit::?relay           00000634        exit (?exit)

    -------------------------------------------------------------------------
  LIBRARY MODULE, NAME : ?cmain

  SEGMENTS IN THE MODULE
  ======================
CSTART
  Relative segment, address: CODE 0000000E, align: 0
  Segment part 5.
           ENTRY                   ADDRESS         REF BY
           =====                   =======         ======
           ?cmain                  0000000E        Segment part 13 (CSTARTUP)
               calls direct
    -------------------------------------------------------------------------
CSTART
  Relative segment, address: CODE 0000000E - 0000001D (0x10 bytes), align: 0
  Segment part 16.
           ENTRY                   ADDRESS         REF BY
           =====                   =======         ======
           __INIT_XDATA_Z          0000000E        Segment part 6 (?xgetmemchunk)
                                                   __iar_Errno (?errno)
                                                   __iar_New_hand (?new)
                                                   __xdata_Aldata (?xxmemxmalloc)
                                                   data_loaded (file_reader)
                                                   test_data (iar_serf_test)
                                                   test_data_count (iar_serf_test)
                                                   trajectory_count (file_reader)
                                                   trajectory_data (file_reader)
    -------------------------------------------------------------------------
CSTART
  Relative segment, address: CODE 0000001E - 00000043 (0x26 bytes), align: 0
  Segment part 33.
           ENTRY                   ADDRESS         REF BY
           =====                   =======         ======
           __INIT_XDATA_I          0000001E        EliasGammaCodec::kLog2Table (elias_gamma_codec)
                                                   Segment part 10 (?xprintflarge_nomb)
                                                   Segment part 10 (iar_serf_test)
                                                   Segment part 100 (iar_serf_test)
                                                   Segment part 102 (iar_serf_test)
                                                   Segment part 104 (iar_serf_test)
                                                   Segment part 106 (iar_serf_test)
                                                   Segment part 108 (iar_serf_test)
                                                   Segment part 110 (iar_serf_test)
                                                   Segment part 112 (iar_serf_test)
                                                   Segment part 114 (iar_serf_test)
                                                   Segment part 116 (iar_serf_test)
                                                   Segment part 118 (iar_serf_test)
                                                   Segment part 12 (?xprintflarge_nomb)
                                                   Segment part 14 (?xprintflarge_nomb)
                                                   Segment part 14 (iar_serf_test)
                                                   Segment part 16 (?xprintflarge_nomb)
                                                   Segment part 6 (?xprintflarge_nomb)
                                                   Segment part 6 (iar_serf_test)
                                                   Segment part 6 (input_bit_stream)
                                                   Segment part 6 (output_bit_stream)
                                                   Segment part 78 (iar_serf_test)
                                                   Segment part 8 (?xprintflarge_nomb)
                                                   Segment part 8 (iar_serf_test)
                                                   Segment part 80 (iar_serf_test)
                                                   Segment part 82 (iar_serf_test)
                                                   Segment part 84 (iar_serf_test)
                                                   Segment part 86 (iar_serf_test)
                                                   Segment part 88 (iar_serf_test)
                                                   Segment part 90 (iar_serf_test)
                                                   Segment part 92 (iar_serf_test)
                                                   Segment part 94 (iar_serf_test)
                                                   Segment part 96 (iar_serf_test)
                                                   Segment part 98 (iar_serf_test)
                                                   __Constant_0 (elias_gamma_codec)
                                                   __Constant_1 (elias_gamma_codec)
                                                   __Constant_10 (net_serf_qt_compressor)
                                                   __Constant_11 (elias_gamma_codec)
                                                   __Constant_186a0 (?xprintflarge_nomb)
                                                   __Constant_21 (input_bit_stream)
                                                   __Constant_32a57060 (?xlog)
                                                   __Constant_32a93728 (?xlog)
                                                   __Constant_33a13ef4 (?xlog)
                                                   __Constant_33fbe8e8 (?xlog)
                                                   __Constant_38d1b717 (file_reader)
                                                   __Constant_38d1b718 (iar_serf_test)
                                                   __Constant_3e000000 (net_serf_qt_compressor)
                                                   __Constant_3e800000 (input_bit_stream)
                                                   __Constant_3e990215 (?xlog)
                                                   __Constant_3e9a2098 (?xlog)
                                                   __Constant_3eccae11 (?xlog)
                                                   __Constant_3ede5bd8 (?xlog)
                                                   __Constant_3ede5bd9 (?xlog)
                                                   __Constant_3f2aaac0 (?xlog)
                                                   __Constant_3f317216 (?xlog)
                                                   __Constant_3f3504f3 (?xlog)
                                                   __Constant_3f7fbe77 (net_serf_qt_compressor)
                                                   __Constant_3f800000 (?ceilf)
                                                   __Constant_3fb8aa3b (?xlog)
                                                   __Constant_4 (net_serf_qt_compressor)
                                                   __Constant_40000000 (net_serf_qt_compressor)
                                                   __Constant_42200e33 (file_reader)
                                                   __Constant_42c80000 (iar_serf_test)
                                                   __Constant_42e89cea (file_reader)
                                                   __Constant_4cbebc20 (?xprintflarge_nomb)
                                                   __Constant_7597 (?xprintflarge_nomb)
                                                   __Constant_8 (input_bit_stream)
                                                   __Constant_a (?xprintflarge_nomb)
                                                   __Constant_bf800000 (?floorf)
                                                   __Constant_ffff (?xprintflarge_nomb)
                                                   __Constant_fffffff8 (input_bit_stream)
                                                   __Constant_ffffffff (net_serf_qt_decompressor)
    -------------------------------------------------------------------------
DIFUNCT
  Relative segment, address: CODE 000014C7, align: 0
  Segment part 38. ROOT 
    -------------------------------------------------------------------------
CSTART
  Relative segment, address: CODE 00000044 - 00000059 (0x16 bytes), align: 0
  Segment part 40.            Intra module refs:   ?cmain
           ENTRY                   ADDRESS         REF BY
           =====                   =======         ======
           ?call_main              00000044 

    -------------------------------------------------------------------------
  LIBRARY MODULE, NAME : CSTARTUP

  SEGMENTS IN THE MODULE
  ======================
REGISTERS
  Relative segment, address: DATA 00000000, align: 0
  Segment part 0.             Intra module refs:   Segment part 6
           ENTRY                   ADDRESS         REF BY
           =====                   =======         ======
           ?REGISTERS              00000000 
    -------------------------------------------------------------------------
ISTACK
  Relative segment, address: IDATA 000000C0, align: 0
  Segment part 1.             Intra module refs:   Segment part 6
           ENTRY                   ADDRESS         REF BY
           =====                   =======         ======
           ?ISTACK_START           000000C0 
    -------------------------------------------------------------------------
XSTACK
  Relative segment, address: XDATA 00000001, align: 0
  Segment part 3.             Intra module refs:   ?RESET_XSP
           ENTRY                   ADDRESS         REF BY
           =====                   =======         ======
           ?XSTACK_START           00000001 
    -------------------------------------------------------------------------
INTVEC
  Common segment, address: CODE 00000000 - 00000002 (0x3 bytes), align: 0
  Segment part 5. ROOT        Intra module refs:   Segment part 6
    -------------------------------------------------------------------------
CSTART
  Relative segment, address: CODE 0000005A - 0000005F (0x6 bytes), align: 0
  Segment part 6. ROOT        Intra module refs:   Segment part 5
           ENTRY                   ADDRESS         REF BY
           =====                   =======         ======
           __program_start         0000005A        Absolute parts (?ABS_ENTRY_MOD)
           ?RESET_SP               0000005D 
    -------------------------------------------------------------------------
CSTART
  Relative segment, address: CODE 00000060 - 00000065 (0x6 bytes), align: 0
  Segment part 8.
           ENTRY                   ADDRESS         REF BY
           =====                   =======         ======
           ?RESET_XSP              00000060        ?XSP (VIRTUAL_REGISTERS)
    -------------------------------------------------------------------------
CSTART
  Relative segment, address: CODE 00000066 - 00000068 (0x3 bytes), align: 0
  Segment part 9.
           ENTRY                   ADDRESS         REF BY
           =====                   =======         ======
           ?RESET_CODE_BANK        00000066        Absolute parts (?BANKED_CODE_SUPPORT)
    -------------------------------------------------------------------------
CSTART
  Relative segment, address: CODE 00000069 - 0000006B (0x3 bytes), align: 0
  Segment part 13.            Intra module refs:   Absolute parts

    -------------------------------------------------------------------------
  LIBRARY MODULE, NAME : VIRTUAL_REGISTERS

  SEGMENTS IN THE MODULE
  ======================
BREG
  Relative segment, address: BIT 00000020.0 - 00000020.7 (0x8 bits), align: 0
  Segment part 0.
           ENTRY                   ADDRESS         REF BY
           =====                   =======         ======
           ?B0                     00000020.0      Absolute parts (CSTARTUP)
    -------------------------------------------------------------------------
VREG
  Relative segment, address: DATA 00000008 - 00000008 (0x1 bytes), align: 0
  Segment part 1.             Intra module refs:   ?V1
           ENTRY                   ADDRESS         REF BY
           =====                   =======         ======
           ?V0                     00000008        ?BANKED_ENTER_XDATA (?BANKED_ENTER_XDATA)
                                                   ?BANKED_LEAVE_XDATA (?BANKED_LEAVE_XDATA)
                                                   ?R2345_FLT_TO_L (?FLT_TO_L)
                                                   ?SL_GE_X (?SL_GE_X)
                                                   ?Subroutine1 (input_bit_stream)
                                                   ?Subroutine12 (input_bit_stream)
                                                   ?Subroutine15 (input_bit_stream)
                                                   ?Subroutine4 (output_bit_stream)
                                                   ?Subroutine9 (output_bit_stream)
                                                   ?UL_GE_X (?UL_GE_X)
                                                   Array<uint32_t>::operator=(Array<uint32_t> const &) (input_bit_stream)
                                                   EliasGammaCodec::Decode(InputBitStream *) (elias_gamma_codec)
                                                   EliasGammaCodec::Encode(long, OutputBitStream *) (elias_gamma_codec)
                                                   InputBitStream::Forward(uint32_t) (input_bit_stream)
                                                   InputBitStream::HasMoreData() const (input_bit_stream)
                                                   InputBitStream::Peek(uint32_t) (input_bit_stream)
                                                   InputBitStream::ReadBit() (input_bit_stream)
                                                   InputBitStream::ReadInt(uint32_t) (input_bit_stream)
                                                   InputBitStream::SetBuffer(Array<uint8_t> const &) (input_bit_stream)
                                                   NetSerfQtCompressor::Compress(double) (net_serf_qt_compressor)
                                                   NetSerfQtCompressor::NetSerfQtCompressor(double) (net_serf_qt_compressor)
                                                   NetSerfQtDecompressor::Decompress(Array<uint8_t> &) (net_serf_qt_decompressor)
                                                   NetSerfQtDecompressor::NetSerfQtDecompressor(double) (net_serf_qt_decompressor)
                                                   OutputBitStream::Flush() (output_bit_stream)
                                                   OutputBitStream::GetBuffer(uint32_t) (output_bit_stream)
                                                   OutputBitStream::OutputBitStream(uint32_t) (output_bit_stream)
                                                   OutputBitStream::Refresh() (output_bit_stream)
                                                   OutputBitStream::Write(uint32_t, uint32_t) (output_bit_stream)
                                                   OutputBitStream::new OutputBitStream(uint32_t) (output_bit_stream)
                                                   Segment part 116 (?xprintflarge_nomb)
                                                   Segment part 117 (?xprintflarge_nomb)
                                                   Segment part 118 (?xprintflarge_nomb)
                                                   Segment part 120 (?xprintflarge_nomb)
                                                   Segment part 145 (?xprintflarge_nomb)
                                                   Segment part 146 (?xprintflarge_nomb)
                                                   Segment part 157 (?xprintflarge_nomb)
                                                   Segment part 17 (elias_gamma_codec)
                                                   Segment part 39 (?xprintflarge_nomb)
                                                   Segment part 51 (?xprintflarge_nomb)
                                                   Segment part 55 (?xprintflarge_nomb)
                                                   Segment part 74 (?xprintflarge_nomb)
                                                   Segment part 87 (?xprintflarge_nomb)
                                                   _GenldLargeNoMb (?xprintflarge_nomb)
                                                   _LdtobLargeNoMb (?xprintflarge_nomb)
                                                   _LitobLargeNoMb (?xprintflarge_nomb)
                                                   _PrintfLargeNoMb (?xprintflarge_nomb)
                                                   _Prout (?xprout)
                                                   _PutcharLargeNoMb (?xprintflarge_nomb)
                                                   _PutcharsLargeNoMb (?xprintflarge_nomb)
                                                   __iar_Dint (?xdint)
                                                   __iar_Log (?xlog)
                                                   __xdata_free (?xxmemxfree)
                                                   __xdata_malloc (?xxmemxmalloc)
                                                   ceilf (?ceilf)
                                                   div (?div)
                                                   fabsf (?fabsf)
                                                   file_reader_init(file_reader_t *, char const *) (file_reader)
                                                   file_reader_read_next(file_reader_t *, trajectory_point_t *) (file_reader)
                                                   floorf (?floorf)
                                                   load_test_data(char const *) (iar_serf_test)
                                                   memcpy (?memcpy)
                                                   operator new(unsigned int) (?newop_0)
                                                   pad (?xprintflarge_nomb)
                                                   printf (?printf)
                                                   putchar (?putchar)
                                                   roundf (?roundf)
                                                   scale (?xprintflarge_nomb)
                                                   test_net_serf_qt_streaming() (iar_serf_test)
    -------------------------------------------------------------------------
VREG
  Relative segment, address: DATA 00000009 - 00000009 (0x1 bytes), align: 0
  Segment part 2.             Intra module refs:   ?V2
           ENTRY                   ADDRESS         REF BY
           =====                   =======         ======
           ?V1                     00000009        ?R2345_FLT_TO_L (?FLT_TO_L)
                                                   ?Subroutine0 (elias_gamma_codec)
                                                   ?Subroutine1 (input_bit_stream)
                                                   ?Subroutine12 (input_bit_stream)
                                                   ?Subroutine15 (input_bit_stream)
                                                   ?Subroutine4 (output_bit_stream)
                                                   ?Subroutine9 (output_bit_stream)
                                                   Array<uint32_t>::operator=(Array<uint32_t> const &) (input_bit_stream)
                                                   EliasGammaCodec::Decode(InputBitStream *) (elias_gamma_codec)
                                                   EliasGammaCodec::Encode(long, OutputBitStream *) (elias_gamma_codec)
                                                   InputBitStream::Forward(uint32_t) (input_bit_stream)
                                                   InputBitStream::HasMoreData() const (input_bit_stream)
                                                   InputBitStream::Peek(uint32_t) (input_bit_stream)
                                                   InputBitStream::ReadBit() (input_bit_stream)
                                                   InputBitStream::ReadInt(uint32_t) (input_bit_stream)
                                                   InputBitStream::SetBuffer(Array<uint8_t> const &) (input_bit_stream)
                                                   NetSerfQtCompressor::Compress(double) (net_serf_qt_compressor)
                                                   NetSerfQtCompressor::NetSerfQtCompressor(double) (net_serf_qt_compressor)
                                                   NetSerfQtDecompressor::Decompress(Array<uint8_t> &) (net_serf_qt_decompressor)
                                                   NetSerfQtDecompressor::NetSerfQtDecompressor(double) (net_serf_qt_decompressor)
                                                   OutputBitStream::Flush() (output_bit_stream)
                                                   OutputBitStream::GetBuffer(uint32_t) (output_bit_stream)
                                                   OutputBitStream::OutputBitStream(uint32_t) (output_bit_stream)
                                                   OutputBitStream::Refresh() (output_bit_stream)
                                                   OutputBitStream::Write(uint32_t, uint32_t) (output_bit_stream)
                                                   OutputBitStream::new OutputBitStream(uint32_t) (output_bit_stream)
                                                   Segment part 117 (?xprintflarge_nomb)
                                                   Segment part 118 (?xprintflarge_nomb)
                                                   Segment part 119 (?xprintflarge_nomb)
                                                   Segment part 121 (?xprintflarge_nomb)
                                                   Segment part 145 (?xprintflarge_nomb)
                                                   Segment part 146 (?xprintflarge_nomb)
                                                   Segment part 157 (?xprintflarge_nomb)
                                                   Segment part 44 (?xprintflarge_nomb)
                                                   Segment part 54 (?xprintflarge_nomb)
                                                   Segment part 74 (?xprintflarge_nomb)
                                                   Segment part 86 (?xprintflarge_nomb)
                                                   Segment part 88 (?xprintflarge_nomb)
                                                   _GenldLargeNoMb (?xprintflarge_nomb)
                                                   _LdtobLargeNoMb (?xprintflarge_nomb)
                                                   _LitobLargeNoMb (?xprintflarge_nomb)
                                                   _PrintfLargeNoMb (?xprintflarge_nomb)
                                                   _Prout (?xprout)
                                                   _PutcharLargeNoMb (?xprintflarge_nomb)
                                                   _PutcharsLargeNoMb (?xprintflarge_nomb)
                                                   __iar_Dint (?xdint)
                                                   __iar_Log (?xlog)
                                                   __xdata_free (?xxmemxfree)
                                                   __xdata_malloc (?xxmemxmalloc)
                                                   ceilf (?ceilf)
                                                   div (?div)
                                                   fabsf (?fabsf)
                                                   file_reader_init(file_reader_t *, char const *) (file_reader)
                                                   file_reader_read_next(file_reader_t *, trajectory_point_t *) (file_reader)
                                                   floorf (?floorf)
                                                   load_test_data(char const *) (iar_serf_test)
                                                   operator new(unsigned int) (?newop_0)
                                                   pad (?xprintflarge_nomb)
                                                   printf (?printf)
                                                   putchar (?putchar)
                                                   roundf (?roundf)
                                                   scale (?xprintflarge_nomb)
                                                   test_net_serf_qt_streaming() (iar_serf_test)
    -------------------------------------------------------------------------
VREG
  Relative segment, address: DATA 0000000A - 0000000A (0x1 bytes), align: 0
  Segment part 3.             Intra module refs:   ?V3
           ENTRY                   ADDRESS         REF BY
           =====                   =======         ======
           ?V2                     0000000A        ?R2345_FLT_TO_L (?FLT_TO_L)
                                                   ?Subroutine1 (input_bit_stream)
                                                   ?Subroutine15 (input_bit_stream)
                                                   ?Subroutine8 (output_bit_stream)
                                                   Array<uint32_t>::operator=(Array<uint32_t> const &) (input_bit_stream)
                                                   EliasGammaCodec::Decode(InputBitStream *) (elias_gamma_codec)
                                                   EliasGammaCodec::Encode(long, OutputBitStream *) (elias_gamma_codec)
                                                   InputBitStream::Forward(uint32_t) (input_bit_stream)
                                                   InputBitStream::HasMoreData() const (input_bit_stream)
                                                   InputBitStream::Peek(uint32_t) (input_bit_stream)
                                                   InputBitStream::ReadBit() (input_bit_stream)
                                                   InputBitStream::ReadInt(uint32_t) (input_bit_stream)
                                                   InputBitStream::SetBuffer(Array<uint8_t> const &) (input_bit_stream)
                                                   NetSerfQtCompressor::Compress(double) (net_serf_qt_compressor)
                                                   NetSerfQtCompressor::NetSerfQtCompressor(double) (net_serf_qt_compressor)
                                                   NetSerfQtDecompressor::Decompress(Array<uint8_t> &) (net_serf_qt_decompressor)
                                                   NetSerfQtDecompressor::NetSerfQtDecompressor(double) (net_serf_qt_decompressor)
                                                   OutputBitStream::Flush() (output_bit_stream)
                                                   OutputBitStream::GetBuffer(uint32_t) (output_bit_stream)
                                                   OutputBitStream::OutputBitStream(uint32_t) (output_bit_stream)
                                                   OutputBitStream::Write(uint32_t, uint32_t) (output_bit_stream)
                                                   OutputBitStream::new OutputBitStream(uint32_t) (output_bit_stream)
                                                   Segment part 118 (?xprintflarge_nomb)
                                                   Segment part 120 (?xprintflarge_nomb)
                                                   Segment part 146 (?xprintflarge_nomb)
                                                   Segment part 152 (?xprintflarge_nomb)
                                                   Segment part 17 (elias_gamma_codec)
                                                   Segment part 74 (?xprintflarge_nomb)
                                                   _GenldLargeNoMb (?xprintflarge_nomb)
                                                   _LdtobLargeNoMb (?xprintflarge_nomb)
                                                   _LitobLargeNoMb (?xprintflarge_nomb)
                                                   _PrintfLargeNoMb (?xprintflarge_nomb)
                                                   _Prout (?xprout)
                                                   _PutcharLargeNoMb (?xprintflarge_nomb)
                                                   _PutcharsLargeNoMb (?xprintflarge_nomb)
                                                   __iar_Dint (?xdint)
                                                   __iar_Log (?xlog)
                                                   __xdata_free (?xxmemxfree)
                                                   __xdata_malloc (?xxmemxmalloc)
                                                   ceilf (?ceilf)
                                                   fabsf (?fabsf)
                                                   file_reader_init(file_reader_t *, char const *) (file_reader)
                                                   floorf (?floorf)
                                                   load_test_data(char const *) (iar_serf_test)
                                                   pad (?xprintflarge_nomb)
                                                   roundf (?roundf)
                                                   scale (?xprintflarge_nomb)
                                                   test_net_serf_qt_streaming() (iar_serf_test)
    -------------------------------------------------------------------------
VREG
  Relative segment, address: DATA 0000000B - 0000000B (0x1 bytes), align: 0
  Segment part 4.             Intra module refs:   ?V4
           ENTRY                   ADDRESS         REF BY
           =====                   =======         ======
           ?V3                     0000000B        ?R2345_FLT_TO_L (?FLT_TO_L)
                                                   ?Subroutine1 (input_bit_stream)
                                                   ?Subroutine15 (input_bit_stream)
                                                   ?Subroutine8 (output_bit_stream)
                                                   Array<uint32_t>::operator=(Array<uint32_t> const &) (input_bit_stream)
                                                   EliasGammaCodec::Decode(InputBitStream *) (elias_gamma_codec)
                                                   EliasGammaCodec::Encode(long, OutputBitStream *) (elias_gamma_codec)
                                                   InputBitStream::Forward(uint32_t) (input_bit_stream)
                                                   InputBitStream::HasMoreData() const (input_bit_stream)
                                                   InputBitStream::Peek(uint32_t) (input_bit_stream)
                                                   InputBitStream::ReadBit() (input_bit_stream)
                                                   InputBitStream::ReadInt(uint32_t) (input_bit_stream)
                                                   InputBitStream::SetBuffer(Array<uint8_t> const &) (input_bit_stream)
                                                   NetSerfQtCompressor::Compress(double) (net_serf_qt_compressor)
                                                   NetSerfQtCompressor::NetSerfQtCompressor(double) (net_serf_qt_compressor)
                                                   NetSerfQtDecompressor::Decompress(Array<uint8_t> &) (net_serf_qt_decompressor)
                                                   NetSerfQtDecompressor::NetSerfQtDecompressor(double) (net_serf_qt_decompressor)
                                                   OutputBitStream::Flush() (output_bit_stream)
                                                   OutputBitStream::GetBuffer(uint32_t) (output_bit_stream)
                                                   OutputBitStream::OutputBitStream(uint32_t) (output_bit_stream)
                                                   OutputBitStream::Write(uint32_t, uint32_t) (output_bit_stream)
                                                   OutputBitStream::new OutputBitStream(uint32_t) (output_bit_stream)
                                                   Segment part 118 (?xprintflarge_nomb)
                                                   Segment part 120 (?xprintflarge_nomb)
                                                   Segment part 146 (?xprintflarge_nomb)
                                                   Segment part 152 (?xprintflarge_nomb)
                                                   Segment part 17 (elias_gamma_codec)
                                                   Segment part 74 (?xprintflarge_nomb)
                                                   _GenldLargeNoMb (?xprintflarge_nomb)
                                                   _LdtobLargeNoMb (?xprintflarge_nomb)
                                                   _LitobLargeNoMb (?xprintflarge_nomb)
                                                   _PrintfLargeNoMb (?xprintflarge_nomb)
                                                   _PutcharsLargeNoMb (?xprintflarge_nomb)
                                                   __iar_Dint (?xdint)
                                                   __iar_Log (?xlog)
                                                   __xdata_free (?xxmemxfree)
                                                   __xdata_malloc (?xxmemxmalloc)
                                                   ceilf (?ceilf)
                                                   fabsf (?fabsf)
                                                   file_reader_init(file_reader_t *, char const *) (file_reader)
                                                   floorf (?floorf)
                                                   load_test_data(char const *) (iar_serf_test)
                                                   pad (?xprintflarge_nomb)
                                                   roundf (?roundf)
                                                   scale (?xprintflarge_nomb)
                                                   test_net_serf_qt_streaming() (iar_serf_test)
    -------------------------------------------------------------------------
VREG
  Relative segment, address: DATA 0000000C - 0000000C (0x1 bytes), align: 0
  Segment part 5.             Intra module refs:   ?V5
           ENTRY                   ADDRESS         REF BY
           =====                   =======         ======
           ?V4                     0000000C        ?Subroutine1 (input_bit_stream)
                                                   ?Subroutine16 (iar_serf_test)
                                                   ?Subroutine23 (iar_serf_test)
                                                   Array<uint32_t>::operator=(Array<uint32_t> const &) (input_bit_stream)
                                                   EliasGammaCodec::Encode(long, OutputBitStream *) (elias_gamma_codec)
                                                   InputBitStream::Forward(uint32_t) (input_bit_stream)
                                                   InputBitStream::Peek(uint32_t) (input_bit_stream)
                                                   InputBitStream::ReadInt(uint32_t) (input_bit_stream)
                                                   InputBitStream::SetBuffer(Array<uint8_t> const &) (input_bit_stream)
                                                   NetSerfQtCompressor::Compress(double) (net_serf_qt_compressor)
                                                   NetSerfQtCompressor::NetSerfQtCompressor(double) (net_serf_qt_compressor)
                                                   NetSerfQtDecompressor::Decompress(Array<uint8_t> &) (net_serf_qt_decompressor)
                                                   NetSerfQtDecompressor::NetSerfQtDecompressor(double) (net_serf_qt_decompressor)
                                                   OutputBitStream::Flush() (output_bit_stream)
                                                   OutputBitStream::GetBuffer(uint32_t) (output_bit_stream)
                                                   OutputBitStream::OutputBitStream(uint32_t) (output_bit_stream)
                                                   OutputBitStream::Write(uint32_t, uint32_t) (output_bit_stream)
                                                   OutputBitStream::new OutputBitStream(uint32_t) (output_bit_stream)
                                                   Segment part 141 (?xprintflarge_nomb)
                                                   Segment part 142 (?xprintflarge_nomb)
                                                   Segment part 74 (?xprintflarge_nomb)
                                                   _GenldLargeNoMb (?xprintflarge_nomb)
                                                   _LdtobLargeNoMb (?xprintflarge_nomb)
                                                   _LitobLargeNoMb (?xprintflarge_nomb)
                                                   _PrintfLargeNoMb (?xprintflarge_nomb)
                                                   _Prout (?xprout)
                                                   _PutcharLargeNoMb (?xprintflarge_nomb)
                                                   _PutcharsLargeNoMb (?xprintflarge_nomb)
                                                   __iar_Log (?xlog)
                                                   __xdata_free (?xxmemxfree)
                                                   __xdata_malloc (?xxmemxmalloc)
                                                   ceilf (?ceilf)
                                                   fabsf (?fabsf)
                                                   file_reader_init(file_reader_t *, char const *) (file_reader)
                                                   floorf (?floorf)
                                                   pad (?xprintflarge_nomb)
                                                   roundf (?roundf)
                                                   scale (?xprintflarge_nomb)
                                                   test_net_serf_qt_streaming() (iar_serf_test)
    -------------------------------------------------------------------------
VREG
  Relative segment, address: DATA 0000000D - 0000000D (0x1 bytes), align: 0
  Segment part 6.             Intra module refs:   ?V6
           ENTRY                   ADDRESS         REF BY
           =====                   =======         ======
           ?V5                     0000000D        ?Subroutine23 (iar_serf_test)
                                                   Array<uint32_t>::operator=(Array<uint32_t> const &) (input_bit_stream)
                                                   EliasGammaCodec::Encode(long, OutputBitStream *) (elias_gamma_codec)
                                                   InputBitStream::Forward(uint32_t) (input_bit_stream)
                                                   InputBitStream::Peek(uint32_t) (input_bit_stream)
                                                   InputBitStream::ReadInt(uint32_t) (input_bit_stream)
                                                   InputBitStream::SetBuffer(Array<uint8_t> const &) (input_bit_stream)
                                                   NetSerfQtCompressor::Compress(double) (net_serf_qt_compressor)
                                                   NetSerfQtCompressor::NetSerfQtCompressor(double) (net_serf_qt_compressor)
                                                   NetSerfQtDecompressor::Decompress(Array<uint8_t> &) (net_serf_qt_decompressor)
                                                   NetSerfQtDecompressor::NetSerfQtDecompressor(double) (net_serf_qt_decompressor)
                                                   OutputBitStream::Flush() (output_bit_stream)
                                                   OutputBitStream::GetBuffer(uint32_t) (output_bit_stream)
                                                   OutputBitStream::OutputBitStream(uint32_t) (output_bit_stream)
                                                   OutputBitStream::Write(uint32_t, uint32_t) (output_bit_stream)
                                                   OutputBitStream::new OutputBitStream(uint32_t) (output_bit_stream)
                                                   Segment part 141 (?xprintflarge_nomb)
                                                   Segment part 142 (?xprintflarge_nomb)
                                                   _GenldLargeNoMb (?xprintflarge_nomb)
                                                   _LdtobLargeNoMb (?xprintflarge_nomb)
                                                   _LitobLargeNoMb (?xprintflarge_nomb)
                                                   _PrintfLargeNoMb (?xprintflarge_nomb)
                                                   _Prout (?xprout)
                                                   _PutcharLargeNoMb (?xprintflarge_nomb)
                                                   _PutcharsLargeNoMb (?xprintflarge_nomb)
                                                   __iar_Log (?xlog)
                                                   __xdata_free (?xxmemxfree)
                                                   __xdata_malloc (?xxmemxmalloc)
                                                   ceilf (?ceilf)
                                                   fabsf (?fabsf)
                                                   file_reader_init(file_reader_t *, char const *) (file_reader)
                                                   floorf (?floorf)
                                                   pad (?xprintflarge_nomb)
                                                   roundf (?roundf)
                                                   scale (?xprintflarge_nomb)
                                                   test_net_serf_qt_streaming() (iar_serf_test)
    -------------------------------------------------------------------------
VREG
  Relative segment, address: DATA 0000000E - 0000000E (0x1 bytes), align: 0
  Segment part 7.             Intra module refs:   ?V7
           ENTRY                   ADDRESS         REF BY
           =====                   =======         ======
           ?V6                     0000000E        EliasGammaCodec::Encode(long, OutputBitStream *) (elias_gamma_codec)
                                                   InputBitStream::Forward(uint32_t) (input_bit_stream)
                                                   InputBitStream::Peek(uint32_t) (input_bit_stream)
                                                   InputBitStream::ReadInt(uint32_t) (input_bit_stream)
                                                   InputBitStream::SetBuffer(Array<uint8_t> const &) (input_bit_stream)
                                                   NetSerfQtCompressor::Compress(double) (net_serf_qt_compressor)
                                                   NetSerfQtCompressor::NetSerfQtCompressor(double) (net_serf_qt_compressor)
                                                   NetSerfQtDecompressor::Decompress(Array<uint8_t> &) (net_serf_qt_decompressor)
                                                   NetSerfQtDecompressor::NetSerfQtDecompressor(double) (net_serf_qt_decompressor)
                                                   OutputBitStream::GetBuffer(uint32_t) (output_bit_stream)
                                                   OutputBitStream::OutputBitStream(uint32_t) (output_bit_stream)
                                                   OutputBitStream::Write(uint32_t, uint32_t) (output_bit_stream)
                                                   _GenldLargeNoMb (?xprintflarge_nomb)
                                                   _LdtobLargeNoMb (?xprintflarge_nomb)
                                                   _LitobLargeNoMb (?xprintflarge_nomb)
                                                   _PutcharsLargeNoMb (?xprintflarge_nomb)
                                                   __iar_Log (?xlog)
                                                   __xdata_malloc (?xxmemxmalloc)
                                                   ceilf (?ceilf)
                                                   fabsf (?fabsf)
                                                   file_reader_init(file_reader_t *, char const *) (file_reader)
                                                   floorf (?floorf)
                                                   pad (?xprintflarge_nomb)
                                                   roundf (?roundf)
                                                   scale (?xprintflarge_nomb)
                                                   test_net_serf_qt_streaming() (iar_serf_test)
    -------------------------------------------------------------------------
VREG
  Relative segment, address: DATA 0000000F - 0000000F (0x1 bytes), align: 0
  Segment part 8.
           ENTRY                   ADDRESS         REF BY
           =====                   =======         ======
           ?V7                     0000000F        EliasGammaCodec::Encode(long, OutputBitStream *) (elias_gamma_codec)
                                                   InputBitStream::Forward(uint32_t) (input_bit_stream)
                                                   InputBitStream::Peek(uint32_t) (input_bit_stream)
                                                   InputBitStream::ReadInt(uint32_t) (input_bit_stream)
                                                   InputBitStream::SetBuffer(Array<uint8_t> const &) (input_bit_stream)
                                                   NetSerfQtCompressor::Compress(double) (net_serf_qt_compressor)
                                                   NetSerfQtCompressor::NetSerfQtCompressor(double) (net_serf_qt_compressor)
                                                   NetSerfQtDecompressor::Decompress(Array<uint8_t> &) (net_serf_qt_decompressor)
                                                   NetSerfQtDecompressor::NetSerfQtDecompressor(double) (net_serf_qt_decompressor)
                                                   OutputBitStream::GetBuffer(uint32_t) (output_bit_stream)
                                                   OutputBitStream::OutputBitStream(uint32_t) (output_bit_stream)
                                                   OutputBitStream::Write(uint32_t, uint32_t) (output_bit_stream)
                                                   _GenldLargeNoMb (?xprintflarge_nomb)
                                                   _LdtobLargeNoMb (?xprintflarge_nomb)
                                                   _LitobLargeNoMb (?xprintflarge_nomb)
                                                   _PutcharsLargeNoMb (?xprintflarge_nomb)
                                                   __iar_Log (?xlog)
                                                   ceilf (?ceilf)
                                                   fabsf (?fabsf)
                                                   file_reader_init(file_reader_t *, char const *) (file_reader)
                                                   floorf (?floorf)
                                                   pad (?xprintflarge_nomb)
                                                   roundf (?roundf)
                                                   scale (?xprintflarge_nomb)
                                                   test_net_serf_qt_streaming() (iar_serf_test)
    -------------------------------------------------------------------------
XSP
  Relative segment, address: DATA 00000010 - 00000011 (0x2 bytes), align: 0
  Segment part 34.
           ENTRY                   ADDRESS         REF BY
           =====                   =======         ======
           ?XSP                    00000010        ?ADD_XSTACK_DISP0_8 (?ADD_XSTACK_DISP8)
                                                   ?ALLOC_XSTACK8 (?ALLOC_XSTACK8)
                                                   ?BANKED_ENTER_XDATA (?BANKED_ENTER_XDATA)
                                                   ?BANKED_LEAVE_XDATA (?BANKED_LEAVE_XDATA)
                                                   ?DEALLOC_XSTACK8 (?DEALLOC_XSTACK8)
                                                   ?PUSH_XSTACK8_X (?PUSH_XSTACK8_X)
                                                   ?RESET_XSP (CSTARTUP)
                                                   ?Subroutine10 (iar_serf_test)
                                                   ?Subroutine3 (input_bit_stream)
                                                   ?Subroutine4 (file_reader)
                                                   ?Subroutine7 (output_bit_stream)
                                                   ?XSTACK_DISP0_8 (?XSTACK_DISP8)
                                                   ?XSTACK_DISP100_8 (?XSTACK_DISP8_RP)
                                                   ?XSTACK_DISP101_8 (?XSTACK_DISP8_RP)
                                                   ?XSTACK_DISP102_8 (?XSTACK_DISP8_RP)
                                                   EliasGammaCodec::Encode(long, OutputBitStream *) (elias_gamma_codec)
                                                   InputBitStream::Forward(uint32_t) (input_bit_stream)
                                                   InputBitStream::Peek(uint32_t) (input_bit_stream)
                                                   InputBitStream::SetBuffer(Array<uint8_t> const &) (input_bit_stream)
                                                   NetSerfQtCompressor::Compress(double) (net_serf_qt_compressor)
                                                   NetSerfQtDecompressor::Decompress(Array<uint8_t> &) (net_serf_qt_decompressor)
                                                   OutputBitStream::GetBuffer(uint32_t) (output_bit_stream)
                                                   OutputBitStream::OutputBitStream(uint32_t) (output_bit_stream)
                                                   OutputBitStream::Write(uint32_t, uint32_t) (output_bit_stream)
                                                   Segment part 110 (?xprintflarge_nomb)
                                                   Segment part 112 (?xprintflarge_nomb)
                                                   Segment part 133 (?xprintflarge_nomb)
                                                   Segment part 136 (?xprintflarge_nomb)
                                                   Segment part 144 (?xprintflarge_nomb)
                                                   Segment part 148 (?xprintflarge_nomb)
                                                   Segment part 43 (?xlog)
                                                   Segment part 62 (input_bit_stream)
                                                   Segment part 68 (?xprintflarge_nomb)
                                                   Segment part 77 (?xprintflarge_nomb)
                                                   Segment part 8 (?div)
                                                   Segment part 91 (?xprintflarge_nomb)
                                                   _GenldLargeNoMb (?xprintflarge_nomb)
                                                   _LdtobLargeNoMb (?xprintflarge_nomb)
                                                   _LitobLargeNoMb (?xprintflarge_nomb)
                                                   _PrintfLargeNoMb (?xprintflarge_nomb)
                                                   __dwrite (?__dwrite)
                                                   __exit (?__exit)
                                                   __iar_Log (?xlog)
                                                   __iar_Memchr (?memchr)
                                                   __write (?__write)
                                                   ceilf (?ceilf)
                                                   div (?div)
                                                   file_reader_init(file_reader_t *, char const *) (file_reader)
                                                   floorf (?floorf)
                                                   load_test_data(char const *) (iar_serf_test)
                                                   memset (?memset)
                                                   pad (?xprintflarge_nomb)
                                                   printf (?printf)
                                                   putchar (?putchar)
                                                   roundf (?roundf)
                                                   scale (?xprintflarge_nomb)
                                                   test_net_serf_qt_streaming() (iar_serf_test)

    -------------------------------------------------------------------------
  LIBRARY MODULE, NAME : ?delop_0

  SEGMENTS IN THE MODULE
  ======================
<BANKED_CODE> 1 (was BANKED_CODE)
  Relative segment, address: CODE 0000583D - 0000584E (0x12 bytes), align: 0
  Segment part 6.             Intra module refs:   operator delete(void *)::?relay
           ENTRY                   ADDRESS         REF BY
           =====                   =======         ======
           operator delete(void *)
                                   0000583D 
               calls direct
               ISTACK = 00000000 ( 00000002 )
    -------------------------------------------------------------------------
BANK_RELAYS
  Relative segment, address: CODE 0000063A - 0000063F (0x6 bytes), align: 0
  Segment part 7.
           ENTRY                   ADDRESS         REF BY
           =====                   =======         ======
           operator delete(void *)::?relay
                                   0000063A        NetSerfQtCompressor::~NetSerfQtCompressor() (net_serf_qt_compressor)
                                                   NetSerfQtDecompressor::~NetSerfQtDecompressor() (net_serf_qt_decompressor)

    -------------------------------------------------------------------------
  LIBRARY MODULE, NAME : ?div

  SEGMENTS IN THE MODULE
  ======================
<BANKED_CODE> 1 (was BANKED_CODE)
  Relative segment, address: CODE 00005477 - 000054E3 (0x6d bytes), align: 0
  Segment part 6.             Intra module refs:   div::?relay
           ENTRY                   ADDRESS         REF BY
           =====                   =======         ======
           div                     00005477 
               XSTACK = 00000002 ( 0000000E )
               ISTACK = 00000000 ( 00000002 )
    -------------------------------------------------------------------------
<BANKED_CODE> 1 (was BANKED_CODE)
  Relative segment, address: CODE 000054E4 - 000054EF (0xc bytes), align: 0
  Segment part 8.             Intra module refs:   div
    -------------------------------------------------------------------------
BANK_RELAYS
  Relative segment, address: CODE 00000640 - 00000645 (0x6 bytes), align: 0
  Segment part 7.
           ENTRY                   ADDRESS         REF BY
           =====                   =======         ======
           div::?relay             00000640        _GenldLargeNoMb (?xprintflarge_nomb)

    -------------------------------------------------------------------------
  LIBRARY MODULE, NAME : ?errno

  SEGMENTS IN THE MODULE
  ======================
XDATA_Z
  Relative segment, address: XDATA 000009D5 - 000009D6 (0x2 bytes), align: 0
  Segment part 6.
           ENTRY                   ADDRESS         REF BY
           =====                   =======         ======
           __iar_Errno             000009D5        __iar_Log (?xlog)

    -------------------------------------------------------------------------
  LIBRARY MODULE, NAME : ?exit

  SEGMENTS IN THE MODULE
  ======================
<BANKED_CODE> 1 (was BANKED_CODE)
  Relative segment, address: CODE 0000584F - 0000585C (0xe bytes), align: 0
  Segment part 6.
           ENTRY                   ADDRESS         REF BY
           =====                   =======         ======
           exit                    0000584F        ?call_main (?cmain)
               calls direct
               ISTACK = 00000000 ( 00000002 )

    -------------------------------------------------------------------------
  LIBRARY MODULE, NAME : ?fabsf

  SEGMENTS IN THE MODULE
  ======================
<BANKED_CODE> 1 (was BANKED_CODE)
  Relative segment, address: CODE 000054F0 - 00005563 (0x74 bytes), align: 0
  Segment part 8.             Intra module refs:   fabsf::?relay
           ENTRY                   ADDRESS         REF BY
           =====                   =======         ======
           fabsf                   000054F0 
               XSTACK = 00000000 ( 00000010 )
    -------------------------------------------------------------------------
BANK_RELAYS
  Relative segment, address: CODE 00000646 - 0000064B (0x6 bytes), align: 0
  Segment part 9.
           ENTRY                   ADDRESS         REF BY
           =====                   =======         ======
           fabsf::?relay           00000646        test_net_serf_qt_streaming() (iar_serf_test)

    -------------------------------------------------------------------------
  LIBRARY MODULE, NAME : ?floorf

  SEGMENTS IN THE MODULE
  ======================
<BANKED_CODE> 1 (was BANKED_CODE)
  Relative segment, address: CODE 000053FA - 00005476 (0x7d bytes), align: 0
  Segment part 10.            Intra module refs:   floorf::?relay
           ENTRY                   ADDRESS         REF BY
           =====                   =======         ======
           floorf                  000053FA 
               calls direct
               XSTACK = 00000000 ( 00000014 )
    -------------------------------------------------------------------------
XDATA_I
  Relative segment, address: XDATA 00000E52 - 00000E55 (0x4 bytes), align: 0
  Segment part 8.             Intra module refs:   __iar_Log (?xlog)
                                                   floorf
                                                   roundf (?roundf)
           ENTRY                   ADDRESS         REF BY
           =====                   =======         ======
           __Constant_bf800000     00000E52 
    -------------------------------------------------------------------------
XDATA_ID
  Relative segment, address: CODE 000004FD - 00000500 (0x4 bytes), align: 0
  Segment part 9.             Intra module refs:   __Constant_bf800000
    -------------------------------------------------------------------------
BANK_RELAYS
  Relative segment, address: CODE 0000064C - 00000651 (0x6 bytes), align: 0
  Segment part 11.
           ENTRY                   ADDRESS         REF BY
           =====                   =======         ======
           floorf::?relay          0000064C        EliasGammaCodec::Encode(long, OutputBitStream *) (elias_gamma_codec)

    -------------------------------------------------------------------------
  LIBRARY MODULE, NAME : ?BANKED_CODE_SUPPORT

  SEGMENTS IN THE MODULE
  ======================
CSTART
  Relative segment, address: CODE 0000006C - 00000089 (0x1e bytes), align: 0
  Segment part 0.
           ENTRY                   ADDRESS         REF BY
           =====                   =======         ======
           ?BCALL_FF               0000006C        ?call_main (?cmain)
                                                   Segment part 10 (?cexit)
           ?BRET_FF                00000072        ?BANKED_LEAVE_XDATA (?BANKED_LEAVE_XDATA)
                                                   ?Subroutine0 (file_reader)
                                                   ?Subroutine2 (output_bit_stream)
                                                   InputBitStream::InputBitStream() (input_bit_stream)
                                                   _Nomemory() (?nomemory)
                                                   __DebugBreak (?__dbg_break)
                                                   __dwrite (?__dwrite)
                                                   __iar_Memchr (?memchr)
                                                   __iar_Strchr (?strchr)
                                                   __write (?__write)
                                                   __xdata_GetMemChunk (?xgetmemchunk)
                                                   abort (?abort)
                                                   exit (?exit)
                                                   main (iar_serf_test)
                                                   memset (?memset)
                                                   operator delete(void *) (?delop_0)
                                                   strlen (?strlen)
           ?BDISPATCH_FF           00000075        Array<uint32_t>::operator=(Array<uint32_t> const &)::?relay (input_bit_stream)
                                                   EliasGammaCodec::Decode(InputBitStream *)::?relay (elias_gamma_codec)
                                                   EliasGammaCodec::Encode(long, OutputBitStream *)::?relay (elias_gamma_codec)
                                                   InputBitStream::Forward(uint32_t)::?relay (input_bit_stream)
                                                   InputBitStream::HasMoreData() const::?relay (input_bit_stream)
                                                   InputBitStream::InputBitStream()::?relay (input_bit_stream)
                                                   InputBitStream::Peek(uint32_t)::?relay (input_bit_stream)
                                                   InputBitStream::ReadBit()::?relay (input_bit_stream)
                                                   InputBitStream::ReadInt(uint32_t)::?relay (input_bit_stream)
                                                   InputBitStream::SetBuffer(Array<uint8_t> const &)::?relay (input_bit_stream)
                                                   NetSerfQtCompressor::Compress(double)::?relay (net_serf_qt_compressor)
                                                   NetSerfQtCompressor::NetSerfQtCompressor(double)::?relay (net_serf_qt_compressor)
                                                   NetSerfQtCompressor::~NetSerfQtCompressor()::?relay (net_serf_qt_compressor)
                                                   NetSerfQtDecompressor::Decompress(Array<uint8_t> &)::?relay (net_serf_qt_decompressor)
                                                   NetSerfQtDecompressor::NetSerfQtDecompressor(double)::?relay (net_serf_qt_decompressor)
                                                   NetSerfQtDecompressor::~NetSerfQtDecompressor()::?relay (net_serf_qt_decompressor)
                                                   OutputBitStream::Flush()::?relay (output_bit_stream)
                                                   OutputBitStream::GetBuffer(uint32_t)::?relay (output_bit_stream)
                                                   OutputBitStream::OutputBitStream(uint32_t)::?relay (output_bit_stream)
                                                   OutputBitStream::Refresh()::?relay (output_bit_stream)
                                                   OutputBitStream::Write(uint32_t, uint32_t)::?relay (output_bit_stream)
                                                   OutputBitStream::WriteInt(uint32_t, uint32_t)::?relay (output_bit_stream)
                                                   OutputBitStream::new OutputBitStream(uint32_t)::?relay (output_bit_stream)
                                                   _GenldLargeNoMb::?relay (?xprintflarge_nomb)
                                                   _LdtobLargeNoMb::?relay (?xprintflarge_nomb)
                                                   _LitobLargeNoMb::?relay (?xprintflarge_nomb)
                                                   _Nomemory()::?relay (?nomemory)
                                                   _PrintfLargeNoMb::?relay (?xprintflarge_nomb)
                                                   _Prout::?relay (?xprout)
                                                   _PutcharLargeNoMb::?relay (?xprintflarge_nomb)
                                                   _PutcharsLargeNoMb::?relay (?xprintflarge_nomb)
                                                   __DebugBreak::?relay (?__dbg_break)
                                                   __dwrite::?relay (?__dwrite)
                                                   __exit::?relay (?__exit)
                                                   __iar_Dint::?relay (?xdint)
                                                   __iar_Log::?relay (?xlog)
                                                   __iar_Memchr::?relay (?memchr)
                                                   __iar_Strchr::?relay (?strchr)
                                                   __write::?relay (?__write)
                                                   __xdata_GetMemChunk::?relay (?xgetmemchunk)
                                                   __xdata_free::?relay (?xxmemxfree)
                                                   __xdata_malloc::?relay (?xxmemxmalloc)
                                                   _exit::?relay (?cexit)
                                                   abort::?relay (?abort)
                                                   ceilf::?relay (?ceilf)
                                                   div::?relay (?div)
                                                   fabsf::?relay (?fabsf)
                                                   file_reader_close(file_reader_t *)::?relay (file_reader)
                                                   file_reader_get_total_points(file_reader_t *)::?relay (file_reader)
                                                   file_reader_init(file_reader_t *, char const *)::?relay (file_reader)
                                                   file_reader_read_next(file_reader_t *, trajectory_point_t *)::?relay (file_reader)
                                                   floorf::?relay (?floorf)
                                                   load_test_data(char const *)::?relay (iar_serf_test)
                                                   memcpy::?relay (?memcpy)
                                                   memset::?relay (?memset)
                                                   operator delete(void *)::?relay (?delop_0)
                                                   operator new(unsigned int)::?relay (?newop_0)
                                                   pad::?relay (?xprintflarge_nomb)
                                                   printf::?relay (?printf)
                                                   putchar::?relay (?putchar)
                                                   roundf::?relay (?roundf)
                                                   scale::?relay (?xprintflarge_nomb)
                                                   strlen::?relay (?strlen)
                                                   test_net_serf_qt_streaming()::?relay (iar_serf_test)

    -------------------------------------------------------------------------
  LIBRARY MODULE, NAME : ?SL_GT_X

  SEGMENTS IN THE MODULE
  ======================
RCODE
  Relative segment, address: CODE 000006E2 - 000006F6 (0x15 bytes), align: 0
  Segment part 1.
           ENTRY                   ADDRESS         REF BY
           =====                   =======         ======
           ?SL_GT_X                000006E2        _PrintfLargeNoMb (?xprintflarge_nomb)

    -------------------------------------------------------------------------
  LIBRARY MODULE, NAME : ?SL_GE_X

  SEGMENTS IN THE MODULE
  ======================
RCODE
  Relative segment, address: CODE 000006F7 - 0000071C (0x26 bytes), align: 0
  Segment part 1.
           ENTRY                   ADDRESS         REF BY
           =====                   =======         ======
           ?SL_GE_X                000006F7        EliasGammaCodec::Encode(long, OutputBitStream *) (elias_gamma_codec)
                                                   _LitobLargeNoMb (?xprintflarge_nomb)

    -------------------------------------------------------------------------
  LIBRARY MODULE, NAME : ?UL_GT_X

  SEGMENTS IN THE MODULE
  ======================
RCODE
  Relative segment, address: CODE 0000071D - 0000072C (0x10 bytes), align: 0
  Segment part 1.
           ENTRY                   ADDRESS         REF BY
           =====                   =======         ======
           ?UL_GT_X                0000071D        InputBitStream::Forward(uint32_t) (input_bit_stream)
                                                   InputBitStream::HasMoreData() const (input_bit_stream)
                                                   InputBitStream::Peek(uint32_t) (input_bit_stream)
                                                   InputBitStream::ReadBit() (input_bit_stream)
                                                   OutputBitStream::Write(uint32_t, uint32_t) (output_bit_stream)

    -------------------------------------------------------------------------
  LIBRARY MODULE, NAME : ?UL_GE_X

  SEGMENTS IN THE MODULE
  ======================
RCODE
  Relative segment, address: CODE 0000072D - 0000074B (0x1f bytes), align: 0
  Segment part 1.
           ENTRY                   ADDRESS         REF BY
           =====                   =======         ======
           ?UL_GE_X                0000072D        InputBitStream::Peek(uint32_t) (input_bit_stream)
                                                   OutputBitStream::Write(uint32_t, uint32_t) (output_bit_stream)

    -------------------------------------------------------------------------
  LIBRARY MODULE, NAME : ?L_TO_FLT

  SEGMENTS IN THE MODULE
  ======================
RCODE
  Relative segment, address: CODE 0000074C - 0000074E (0x3 bytes), align: 0
  Segment part 0.
           ENTRY                   ADDRESS         REF BY
           =====                   =======         ======
           ?L_TO_FLT               0000074C        EliasGammaCodec::Encode(long, OutputBitStream *) (elias_gamma_codec)
                                                   NetSerfQtCompressor::Compress(double) (net_serf_qt_compressor)
                                                   NetSerfQtDecompressor::Decompress(Array<uint8_t> &) (net_serf_qt_decompressor)
                                                   __iar_Log (?xlog)
    -------------------------------------------------------------------------
RCODE
  Relative segment, address: CODE 0000074F - 00000763 (0x15 bytes), align: 0
  Segment part 1.             Intra module refs:   ?L_TO_FLT
           ENTRY                   ADDRESS         REF BY
           =====                   =======         ======
           ?L_TO_FLT_REW           0000074F 
    -------------------------------------------------------------------------
RCODE
  Relative segment, address: CODE 00000764 - 00000766 (0x3 bytes), align: 0
  Segment part 2.             Intra module refs:   ?L_TO_FLT_REW
           ENTRY                   ADDRESS         REF BY
           =====                   =======         ======
           ?UL_TO_FLT_REW          00000764 
    -------------------------------------------------------------------------
RCODE
  Relative segment, address: CODE 00000767 - 000007C3 (0x5d bytes), align: 0
  Segment part 3.             Intra module refs:   ?L_TO_FLT_REW
                                                   ?UL_TO_FLT_REW
           ENTRY                   ADDRESS         REF BY
           =====                   =======         ======
           ?UL_TO_FLT              00000767        InputBitStream::SetBuffer(Array<uint8_t> const &) (input_bit_stream)
                                                   _LdtobLargeNoMb (?xprintflarge_nomb)
                                                   file_reader_init(file_reader_t *, char const *) (file_reader)
                                                   test_net_serf_qt_streaming() (iar_serf_test)

    -------------------------------------------------------------------------
  LIBRARY MODULE, NAME : ?FLT_TO_L

  SEGMENTS IN THE MODULE
  ======================
RCODE
  Relative segment, address: CODE 000007C4 - 000007CE (0xb bytes), align: 0
  Segment part 2.
           ENTRY                   ADDRESS         REF BY
           =====                   =======         ======
           ?FLT_TO_UL              000007C4        _LdtobLargeNoMb (?xprintflarge_nomb)
    -------------------------------------------------------------------------
RCODE
  Relative segment, address: CODE 000007CF - 000007D8 (0xa bytes), align: 0
  Segment part 4.
           ENTRY                   ADDRESS         REF BY
           =====                   =======         ======
           ?R2345_FLT_TO_L         000007CF        EliasGammaCodec::Encode(long, OutputBitStream *) (elias_gamma_codec)
                                                   InputBitStream::SetBuffer(Array<uint8_t> const &) (input_bit_stream)
                                                   NetSerfQtCompressor::Compress(double) (net_serf_qt_compressor)
    -------------------------------------------------------------------------
RCODE
  Relative segment, address: CODE 000007D9 - 0000080C (0x34 bytes), align: 0
  Segment part 5.             Intra module refs:   ?R2345_FLT_TO_L
           ENTRY                   ADDRESS         REF BY
           =====                   =======         ======
           ?FLT_TO_L               000007D9 
    -------------------------------------------------------------------------
RCODE
  Relative segment, address: CODE 0000080D - 00000818 (0xc bytes), align: 0
  Segment part 6.             Intra module refs:   ?FLT_TO_L
                                                   ?FLT_TO_UL
    -------------------------------------------------------------------------
RCODE
  Relative segment, address: CODE 00000819 - 00000867 (0x4f bytes), align: 0
  Segment part 7.             Intra module refs:   ?FLT_TO_L
                                                   ?FLT_TO_UL

    -------------------------------------------------------------------------
  LIBRARY MODULE, NAME : ?FLT_TEST_ZERO

  SEGMENTS IN THE MODULE
  ======================
RCODE
  Relative segment, address: CODE 00000868 - 00000870 (0x9 bytes), align: 0
  Segment part 1.
           ENTRY                   ADDRESS         REF BY
           =====                   =======         ======
           ?FLT_TEST_ZERO_REW      00000868        ?FLT_ADD (?FLT_ADD)
                                                   ?FLT_DIV (?FLT_DIV)
                                                   ?FLT_GE (?FLT_GE)
                                                   ?FLT_LT (?FLT_LT)
                                                   ?FLT_MUL (?FLT_MUL)

    -------------------------------------------------------------------------
  LIBRARY MODULE, NAME : ?FLT_TEST_ZERO_R1

  SEGMENTS IN THE MODULE
  ======================
RCODE
  Relative segment, address: CODE 00000871 - 00000879 (0x9 bytes), align: 0
  Segment part 1.
           ENTRY                   ADDRESS         REF BY
           =====                   =======         ======
           ?FLT_TEST_ZERO_R1_REW   00000871        ?FLT_ADD (?FLT_ADD)
                                                   ?FLT_DIV (?FLT_DIV)
                                                   ?FLT_GE (?FLT_GE)
                                                   ?FLT_LT (?FLT_LT)
                                                   ?FLT_MUL (?FLT_MUL)

    -------------------------------------------------------------------------
  LIBRARY MODULE, NAME : ?FLT_TEST_INF

  SEGMENTS IN THE MODULE
  ======================
RCODE
  Relative segment, address: CODE 0000087A - 0000087C (0x3 bytes), align: 0
  Segment part 0.
           ENTRY                   ADDRESS         REF BY
           =====                   =======         ======
           ?FLT_TEST_INF_REW       0000087A        ?FLT_ADD (?FLT_ADD)
                                                   ?FLT_MUL (?FLT_MUL)
    -------------------------------------------------------------------------
RCODE
  Relative segment, address: CODE 0000087D - 0000088D (0x11 bytes), align: 0
  Segment part 1.             Intra module refs:   ?FLT_TEST_INF_REW
           ENTRY                   ADDRESS         REF BY
           =====                   =======         ======
           ?FLT_TEST_INF           0000087D        ?FLT_DIV (?FLT_DIV)

    -------------------------------------------------------------------------
  LIBRARY MODULE, NAME : ?FLT_TEST_INF_R1

  SEGMENTS IN THE MODULE
  ======================
RCODE
  Relative segment, address: CODE 0000088E - 00000890 (0x3 bytes), align: 0
  Segment part 0.
           ENTRY                   ADDRESS         REF BY
           =====                   =======         ======
           ?FLT_TEST_INF_R1_REW    0000088E        ?FLT_ADD (?FLT_ADD)
                                                   ?FLT_MUL (?FLT_MUL)
    -------------------------------------------------------------------------
RCODE
  Relative segment, address: CODE 00000891 - 000008A1 (0x11 bytes), align: 0
  Segment part 1.             Intra module refs:   ?FLT_TEST_INF_R1_REW
           ENTRY                   ADDRESS         REF BY
           =====                   =======         ======
           ?FLT_TEST_INF_R1        00000891        ?FLT_DIV (?FLT_DIV)

    -------------------------------------------------------------------------
  LIBRARY MODULE, NAME : ?FLT_TEST_NAN

  SEGMENTS IN THE MODULE
  ======================
RCODE
  Relative segment, address: CODE 000008A2 - 000008B0 (0xf bytes), align: 0
  Segment part 1.
           ENTRY                   ADDRESS         REF BY
           =====                   =======         ======
           ?FLT_TEST_NAN           000008A2        ?FLT_ADD (?FLT_ADD)
                                                   ?FLT_DIV (?FLT_DIV)
                                                   ?FLT_GE (?FLT_GE)
                                                   ?FLT_LT (?FLT_LT)
                                                   ?FLT_MUL (?FLT_MUL)
                                                   ?FLT_SUB (?FLT_ADD)

    -------------------------------------------------------------------------
  LIBRARY MODULE, NAME : ?FLT_TEST_NAN_R1

  SEGMENTS IN THE MODULE
  ======================
RCODE
  Relative segment, address: CODE 000008B1 - 000008BF (0xf bytes), align: 0
  Segment part 1.
           ENTRY                   ADDRESS         REF BY
           =====                   =======         ======
           ?FLT_TEST_NAN_R1        000008B1        ?FLT_ADD (?FLT_ADD)
                                                   ?FLT_DIV (?FLT_DIV)
                                                   ?FLT_GE (?FLT_GE)
                                                   ?FLT_LT (?FLT_LT)
                                                   ?FLT_MUL (?FLT_MUL)
                                                   ?FLT_SUB (?FLT_ADD)

    -------------------------------------------------------------------------
  LIBRARY MODULE, NAME : ?FLT_GE

  SEGMENTS IN THE MODULE
  ======================
RCODE
  Relative segment, address: CODE 000008C0 - 0000090E (0x4f bytes), align: 0
  Segment part 1.
           ENTRY                   ADDRESS         REF BY
           =====                   =======         ======
           ?FLT_GE                 000008C0        ceilf (?ceilf)
                                                   test_net_serf_qt_streaming() (iar_serf_test)

    -------------------------------------------------------------------------
  LIBRARY MODULE, NAME : ?FLT_LT

  SEGMENTS IN THE MODULE
  ======================
RCODE
  Relative segment, address: CODE 0000090F - 0000095A (0x4c bytes), align: 0
  Segment part 1.
           ENTRY                   ADDRESS         REF BY
           =====                   =======         ======
           ?FLT_LT                 0000090F        _LdtobLargeNoMb (?xprintflarge_nomb)
                                                   __iar_Log (?xlog)
                                                   fabsf (?fabsf)
                                                   floorf (?floorf)
                                                   test_net_serf_qt_streaming() (iar_serf_test)

    -------------------------------------------------------------------------
  LIBRARY MODULE, NAME : ?FLT_MUL

  SEGMENTS IN THE MODULE
  ======================
RCODE
  Relative segment, address: CODE 0000095B - 00000ADA (0x180 bytes), align: 0
  Segment part 1.
           ENTRY                   ADDRESS         REF BY
           =====                   =======         ======
           ?FLT_MUL                0000095B        InputBitStream::SetBuffer(Array<uint8_t> const &) (input_bit_stream)
                                                   NetSerfQtCompressor::Compress(double) (net_serf_qt_compressor)
                                                   NetSerfQtCompressor::NetSerfQtCompressor(double) (net_serf_qt_compressor)
                                                   NetSerfQtDecompressor::Decompress(Array<uint8_t> &) (net_serf_qt_decompressor)
                                                   NetSerfQtDecompressor::NetSerfQtDecompressor(double) (net_serf_qt_decompressor)
                                                   _LdtobLargeNoMb (?xprintflarge_nomb)
                                                   __iar_Log (?xlog)
                                                   file_reader_init(file_reader_t *, char const *) (file_reader)
                                                   scale (?xprintflarge_nomb)
                                                   test_net_serf_qt_streaming() (iar_serf_test)

    -------------------------------------------------------------------------
  LIBRARY MODULE, NAME : ?FLT_ADD

  SEGMENTS IN THE MODULE
  ======================
RCODE
  Relative segment, address: CODE 00000ADB - 00000AFF (0x25 bytes), align: 0
  Segment part 1.
           ENTRY                   ADDRESS         REF BY
           =====                   =======         ======
           ?FLT_SUB                00000ADB        NetSerfQtCompressor::Compress(double) (net_serf_qt_compressor)
                                                   _LdtobLargeNoMb (?xprintflarge_nomb)
                                                   __iar_Log (?xlog)
                                                   test_net_serf_qt_streaming() (iar_serf_test)
    -------------------------------------------------------------------------
RCODE
  Relative segment, address: CODE 00000B00 - 00000D19 (0x21a bytes), align: 0
  Segment part 3.             Intra module refs:   ?FLT_SUB
           ENTRY                   ADDRESS         REF BY
           =====                   =======         ======
           ?FLT_ADD                00000B00        NetSerfQtCompressor::Compress(double) (net_serf_qt_compressor)
                                                   NetSerfQtDecompressor::Decompress(Array<uint8_t> &) (net_serf_qt_decompressor)
                                                   __iar_Log (?xlog)
                                                   ceilf (?ceilf)
                                                   file_reader_init(file_reader_t *, char const *) (file_reader)
                                                   floorf (?floorf)
                                                   roundf (?roundf)

    -------------------------------------------------------------------------
  LIBRARY MODULE, NAME : ?FLT_DIV

  SEGMENTS IN THE MODULE
  ======================
RCODE
  Relative segment, address: CODE 00000D1A - 00000EFF (0x1e6 bytes), align: 0
  Segment part 1.
           ENTRY                   ADDRESS         REF BY
           =====                   =======         ======
           ?FLT_DIV                00000D1A        NetSerfQtCompressor::Compress(double) (net_serf_qt_compressor)
                                                   _LdtobLargeNoMb (?xprintflarge_nomb)
                                                   __iar_Log (?xlog)
                                                   test_net_serf_qt_streaming() (iar_serf_test)

    -------------------------------------------------------------------------
  LIBRARY MODULE, NAME : ?L_MUL

  SEGMENTS IN THE MODULE
  ======================
RCODE
  Relative segment, address: CODE 00000F00 - 00000F02 (0x3 bytes), align: 0
  Segment part 0.
           ENTRY                   ADDRESS         REF BY
           =====                   =======         ======
           ?L_MUL                  00000F00        _LdtobLargeNoMb (?xprintflarge_nomb)
    -------------------------------------------------------------------------
RCODE
  Relative segment, address: CODE 00000F03 - 00000F7F (0x7d bytes), align: 0
  Segment part 1.             Intra module refs:   ?L_MUL
           ENTRY                   ADDRESS         REF BY
           =====                   =======         ======
           ?L_MUL_REW              00000F03 

    -------------------------------------------------------------------------
  LIBRARY MODULE, NAME : ?UL_DIV_MOD

  SEGMENTS IN THE MODULE
  ======================
RCODE
  Relative segment, address: CODE 00000F80 - 00000FEE (0x6f bytes), align: 0
  Segment part 1.
           ENTRY                   ADDRESS         REF BY
           =====                   =======         ======
           ?UL_DIV_MOD             00000F80        ?L_DIV_MOD (?L_DIV_MOD)
                                                   _LdtobLargeNoMb (?xprintflarge_nomb)
                                                   _LitobLargeNoMb (?xprintflarge_nomb)

    -------------------------------------------------------------------------
  LIBRARY MODULE, NAME : ?L_DIV_MOD

  SEGMENTS IN THE MODULE
  ======================
RCODE
  Relative segment, address: CODE 00000FEF - 00001045 (0x57 bytes), align: 0
  Segment part 0.
           ENTRY                   ADDRESS         REF BY
           =====                   =======         ======
           ?L_DIV_MOD              00001019        _LdtobLargeNoMb (?xprintflarge_nomb)

    -------------------------------------------------------------------------
  LIBRARY MODULE, NAME : ?L_NEG_R1

  SEGMENTS IN THE MODULE
  ======================
RCODE
  Relative segment, address: CODE 00001046 - 00001056 (0x11 bytes), align: 0
  Segment part 1.
           ENTRY                   ADDRESS         REF BY
           =====                   =======         ======
           ?L_NEG_R1               00001046        ?L_DIV_MOD (?L_DIV_MOD)

    -------------------------------------------------------------------------
  LIBRARY MODULE, NAME : ?L_NEG

  SEGMENTS IN THE MODULE
  ======================
RCODE
  Relative segment, address: CODE 00001057 - 00001059 (0x3 bytes), align: 0
  Segment part 0.
           ENTRY                   ADDRESS         REF BY
           =====                   =======         ======
           ?L_NEG_REW              00001057        ?L_TO_FLT_REW (?L_TO_FLT)
    -------------------------------------------------------------------------
RCODE
  Relative segment, address: CODE 0000105A - 0000106A (0x11 bytes), align: 0
  Segment part 1.             Intra module refs:   ?L_NEG_REW
           ENTRY                   ADDRESS         REF BY
           =====                   =======         ======
           ?L_NEG                  0000105A        ?L_DIV_MOD (?L_DIV_MOD)
                                                   NetSerfQtDecompressor::Decompress(Array<uint8_t> &) (net_serf_qt_decompressor)
                                                   _LitobLargeNoMb (?xprintflarge_nomb)

    -------------------------------------------------------------------------
  LIBRARY MODULE, NAME : ?SL_SHR

  SEGMENTS IN THE MODULE
  ======================
RCODE
  Relative segment, address: CODE 0000106B - 0000106F (0x5 bytes), align: 0
  Segment part 1.             Intra module refs:   Segment part 2
           ENTRY                   ADDRESS         REF BY
           =====                   =======         ======
           ?SL_SHR                 0000106B        NetSerfQtCompressor::Compress(double) (net_serf_qt_compressor)
                                                   NetSerfQtDecompressor::Decompress(Array<uint8_t> &) (net_serf_qt_decompressor)
    -------------------------------------------------------------------------
RCODE
  Relative segment, address: CODE 00001070 - 00001084 (0x15 bytes), align: 0
  Segment part 2.             Intra module refs:   ?SL_SHR

    -------------------------------------------------------------------------
  LIBRARY MODULE, NAME : ?UL_SHR

  SEGMENTS IN THE MODULE
  ======================
RCODE
  Relative segment, address: CODE 00001085 - 00001089 (0x5 bytes), align: 0
  Segment part 1.             Intra module refs:   Segment part 2
           ENTRY                   ADDRESS         REF BY
           =====                   =======         ======
           ?UL_SHR                 00001085        OutputBitStream::OutputBitStream(uint32_t) (output_bit_stream)
                                                   OutputBitStream::Write(uint32_t, uint32_t) (output_bit_stream)
                                                   fabsf (?fabsf)
    -------------------------------------------------------------------------
RCODE
  Relative segment, address: CODE 0000108A - 0000109D (0x14 bytes), align: 0
  Segment part 2.             Intra module refs:   ?UL_SHR

    -------------------------------------------------------------------------
  LIBRARY MODULE, NAME : ?L_SHL

  SEGMENTS IN THE MODULE
  ======================
RCODE
  Relative segment, address: CODE 0000109E - 000010A3 (0x6 bytes), align: 0
  Segment part 0.
           ENTRY                   ADDRESS         REF BY
           =====                   =======         ======
           ?L_SHL                  0000109E        EliasGammaCodec::Decode(InputBitStream *) (elias_gamma_codec)
                                                   InputBitStream::Peek(uint32_t) (input_bit_stream)
                                                   NetSerfQtCompressor::Compress(double) (net_serf_qt_compressor)
    -------------------------------------------------------------------------
RCODE
  Relative segment, address: CODE 000010A4 - 000010A8 (0x5 bytes), align: 0
  Segment part 1.             Intra module refs:   Segment part 2
           ENTRY                   ADDRESS         REF BY
           =====                   =======         ======
           ?L_SHL_REW              000010A4 
    -------------------------------------------------------------------------
RCODE
  Relative segment, address: CODE 000010A9 - 000010BC (0x14 bytes), align: 0
  Segment part 2.             Intra module refs:   ?L_SHL
                                                   ?L_SHL_REW

    -------------------------------------------------------------------------
  LIBRARY MODULE, NAME : ?L_ADD_X

  SEGMENTS IN THE MODULE
  ======================
RCODE
  Relative segment, address: CODE 000010BD - 000010CF (0x13 bytes), align: 0
  Segment part 1.
           ENTRY                   ADDRESS         REF BY
           =====                   =======         ======
           ?L_ADD_X                000010BD        InputBitStream::Forward(uint32_t) (input_bit_stream)
                                                   NetSerfQtCompressor::Compress(double) (net_serf_qt_compressor)
                                                   NetSerfQtDecompressor::Decompress(Array<uint8_t> &) (net_serf_qt_decompressor)

    -------------------------------------------------------------------------
  LIBRARY MODULE, NAME : ?L_ADD_TO_X

  SEGMENTS IN THE MODULE
  ======================
RCODE
  Relative segment, address: CODE 000010D0 - 000010E2 (0x13 bytes), align: 0
  Segment part 1.
           ENTRY                   ADDRESS         REF BY
           =====                   =======         ======
           ?L_ADD_TO_X             000010D0        InputBitStream::Forward(uint32_t) (input_bit_stream)
                                                   InputBitStream::Peek(uint32_t) (input_bit_stream)
                                                   OutputBitStream::Flush() (output_bit_stream)
                                                   OutputBitStream::Write(uint32_t, uint32_t) (output_bit_stream)
                                                   test_net_serf_qt_streaming() (iar_serf_test)

    -------------------------------------------------------------------------
  LIBRARY MODULE, NAME : ?L_SUB_X

  SEGMENTS IN THE MODULE
  ======================
RCODE
  Relative segment, address: CODE 000010E3 - 000010FA (0x18 bytes), align: 0
  Segment part 1.
           ENTRY                   ADDRESS         REF BY
           =====                   =======         ======
           ?L_SUB_X                000010E3        InputBitStream::Forward(uint32_t) (input_bit_stream)

    -------------------------------------------------------------------------
  LIBRARY MODULE, NAME : ?L_AND_X

  SEGMENTS IN THE MODULE
  ======================
RCODE
  Relative segment, address: CODE 000010FB - 0000110D (0x13 bytes), align: 0
  Segment part 1.
           ENTRY                   ADDRESS         REF BY
           =====                   =======         ======
           ?L_AND_X                000010FB        NetSerfQtDecompressor::Decompress(Array<uint8_t> &) (net_serf_qt_decompressor)

    -------------------------------------------------------------------------
  LIBRARY MODULE, NAME : ?L_AND_TO_X

  SEGMENTS IN THE MODULE
  ======================
RCODE
  Relative segment, address: CODE 0000110E - 00001120 (0x13 bytes), align: 0
  Segment part 1.
           ENTRY                   ADDRESS         REF BY
           =====                   =======         ======
           ?L_AND_TO_X             0000110E        _PrintfLargeNoMb (?xprintflarge_nomb)

    -------------------------------------------------------------------------
  LIBRARY MODULE, NAME : ?L_IOR_X

  SEGMENTS IN THE MODULE
  ======================
RCODE
  Relative segment, address: CODE 00001121 - 00001133 (0x13 bytes), align: 0
  Segment part 1.
           ENTRY                   ADDRESS         REF BY
           =====                   =======         ======
           ?L_IOR_X                00001121        EliasGammaCodec::Decode(InputBitStream *) (elias_gamma_codec)

    -------------------------------------------------------------------------
  LIBRARY MODULE, NAME : ?L_IOR_TO_X

  SEGMENTS IN THE MODULE
  ======================
RCODE
  Relative segment, address: CODE 00001134 - 00001146 (0x13 bytes), align: 0
  Segment part 1.
           ENTRY                   ADDRESS         REF BY
           =====                   =======         ======
           ?L_IOR_TO_X             00001134        InputBitStream::Peek(uint32_t) (input_bit_stream)
                                                   OutputBitStream::Write(uint32_t, uint32_t) (output_bit_stream)

    -------------------------------------------------------------------------
  LIBRARY MODULE, NAME : ?L_XOR

  SEGMENTS IN THE MODULE
  ======================
RCODE
  Relative segment, address: CODE 00001147 - 00001159 (0x13 bytes), align: 0
  Segment part 1.
           ENTRY                   ADDRESS         REF BY
           =====                   =======         ======
           ?L_XOR                  00001147        NetSerfQtCompressor::Compress(double) (net_serf_qt_compressor)
                                                   NetSerfQtDecompressor::Decompress(Array<uint8_t> &) (net_serf_qt_decompressor)

    -------------------------------------------------------------------------
  LIBRARY MODULE, NAME : ?L_MOV_X

  SEGMENTS IN THE MODULE
  ======================
RCODE
  Relative segment, address: CODE 0000115A - 00001168 (0xf bytes), align: 0
  Segment part 0.
           ENTRY                   ADDRESS         REF BY
           =====                   =======         ======
           ?L_MOV_X                0000115A        ?Subroutine1 (input_bit_stream)
                                                   InputBitStream::Forward(uint32_t) (input_bit_stream)
                                                   InputBitStream::HasMoreData() const (input_bit_stream)
                                                   InputBitStream::Peek(uint32_t) (input_bit_stream)
                                                   InputBitStream::ReadBit() (input_bit_stream)
                                                   InputBitStream::SetBuffer(Array<uint8_t> const &) (input_bit_stream)
                                                   NetSerfQtCompressor::Compress(double) (net_serf_qt_compressor)
                                                   NetSerfQtCompressor::NetSerfQtCompressor(double) (net_serf_qt_compressor)
                                                   NetSerfQtDecompressor::Decompress(Array<uint8_t> &) (net_serf_qt_decompressor)
                                                   NetSerfQtDecompressor::NetSerfQtDecompressor(double) (net_serf_qt_decompressor)
                                                   OutputBitStream::Flush() (output_bit_stream)
                                                   OutputBitStream::GetBuffer(uint32_t) (output_bit_stream)
                                                   OutputBitStream::OutputBitStream(uint32_t) (output_bit_stream)
                                                   OutputBitStream::Write(uint32_t, uint32_t) (output_bit_stream)
                                                   _LdtobLargeNoMb (?xprintflarge_nomb)
                                                   _LitobLargeNoMb (?xprintflarge_nomb)
                                                   _PrintfLargeNoMb (?xprintflarge_nomb)
                                                   __iar_Log (?xlog)
                                                   ceilf (?ceilf)
                                                   fabsf (?fabsf)
                                                   file_reader_init(file_reader_t *, char const *) (file_reader)
                                                   floorf (?floorf)
                                                   roundf (?roundf)
                                                   scale (?xprintflarge_nomb)
                                                   test_net_serf_qt_streaming() (iar_serf_test)

    -------------------------------------------------------------------------
  LIBRARY MODULE, NAME : ?L_MOV_TO_X

  SEGMENTS IN THE MODULE
  ======================
RCODE
  Relative segment, address: CODE 00001169 - 00001177 (0xf bytes), align: 0
  Segment part 2.
           ENTRY                   ADDRESS         REF BY
           =====                   =======         ======
           ?L_MOV_TO_X             00001169        NetSerfQtCompressor::Compress(double) (net_serf_qt_compressor)
                                                   NetSerfQtCompressor::NetSerfQtCompressor(double) (net_serf_qt_compressor)
                                                   NetSerfQtDecompressor::Decompress(Array<uint8_t> &) (net_serf_qt_decompressor)
                                                   NetSerfQtDecompressor::NetSerfQtDecompressor(double) (net_serf_qt_decompressor)
                                                   _LdtobLargeNoMb (?xprintflarge_nomb)
                                                   _LitobLargeNoMb (?xprintflarge_nomb)
                                                   _PrintfLargeNoMb (?xprintflarge_nomb)
                                                   __iar_Log (?xlog)
                                                   ceilf (?ceilf)
                                                   file_reader_init(file_reader_t *, char const *) (file_reader)
                                                   floorf (?floorf)
                                                   roundf (?roundf)
                                                   scale (?xprintflarge_nomb)
                                                   test_net_serf_qt_streaming() (iar_serf_test)

    -------------------------------------------------------------------------
  LIBRARY MODULE, NAME : ?XLOAD_R2345

  SEGMENTS IN THE MODULE
  ======================
RCODE
  Relative segment, address: CODE 00001178 - 00001183 (0xc bytes), align: 0
  Segment part 0.
           ENTRY                   ADDRESS         REF BY
           =====                   =======         ======
           ?XLOAD_R2345            00001178        EliasGammaCodec::Encode(long, OutputBitStream *) (elias_gamma_codec)
                                                   InputBitStream::Peek(uint32_t) (input_bit_stream)
                                                   NetSerfQtCompressor::NetSerfQtCompressor(double) (net_serf_qt_compressor)
                                                   _LdtobLargeNoMb (?xprintflarge_nomb)
                                                   __iar_Log (?xlog)
                                                   roundf (?roundf)
                                                   scale (?xprintflarge_nomb)

    -------------------------------------------------------------------------
  LIBRARY MODULE, NAME : ?XSTORE_R2345

  SEGMENTS IN THE MODULE
  ======================
RCODE
  Relative segment, address: CODE 00001184 - 0000118F (0xc bytes), align: 0
  Segment part 0.
           ENTRY                   ADDRESS         REF BY
           =====                   =======         ======
           ?XSTORE_R2345           00001184        _LdtobLargeNoMb (?xprintflarge_nomb)
                                                   test_net_serf_qt_streaming() (iar_serf_test)

    -------------------------------------------------------------------------
  LIBRARY MODULE, NAME : ?XLOAD_R4567

  SEGMENTS IN THE MODULE
  ======================
RCODE
  Relative segment, address: CODE 00001190 - 0000119B (0xc bytes), align: 0
  Segment part 0.
           ENTRY                   ADDRESS         REF BY
           =====                   =======         ======
           ?XLOAD_R4567            00001190        InputBitStream::Forward(uint32_t) (input_bit_stream)
                                                   _LdtobLargeNoMb (?xprintflarge_nomb)
                                                   _LitobLargeNoMb (?xprintflarge_nomb)

    -------------------------------------------------------------------------
  LIBRARY MODULE, NAME : ?XSTORE_R4567

  SEGMENTS IN THE MODULE
  ======================
RCODE
  Relative segment, address: CODE 0000119C - 000011A7 (0xc bytes), align: 0
  Segment part 0.
           ENTRY                   ADDRESS         REF BY
           =====                   =======         ======
           ?XSTORE_R4567           0000119C        _LdtobLargeNoMb (?xprintflarge_nomb)

    -------------------------------------------------------------------------
  LIBRARY MODULE, NAME : ?XLOAD_R0123

  SEGMENTS IN THE MODULE
  ======================
RCODE
  Relative segment, address: CODE 000011A8 - 000011B3 (0xc bytes), align: 0
  Segment part 0.
           ENTRY                   ADDRESS         REF BY
           =====                   =======         ======
           ?XLOAD_R0123            000011A8        InputBitStream::Forward(uint32_t) (input_bit_stream)
                                                   InputBitStream::Peek(uint32_t) (input_bit_stream)
                                                   NetSerfQtCompressor::Compress(double) (net_serf_qt_compressor)
                                                   OutputBitStream::Flush() (output_bit_stream)
                                                   _LdtobLargeNoMb (?xprintflarge_nomb)
                                                   _LitobLargeNoMb (?xprintflarge_nomb)
                                                   _PrintfLargeNoMb (?xprintflarge_nomb)
                                                   test_net_serf_qt_streaming() (iar_serf_test)

    -------------------------------------------------------------------------
  LIBRARY MODULE, NAME : ?XSTORE_R0123

  SEGMENTS IN THE MODULE
  ======================
RCODE
  Relative segment, address: CODE 000011B4 - 000011BF (0xc bytes), align: 0
  Segment part 0.
           ENTRY                   ADDRESS         REF BY
           =====                   =======         ======
           ?XSTORE_R0123           000011B4        InputBitStream::Forward(uint32_t) (input_bit_stream)
                                                   InputBitStream::Peek(uint32_t) (input_bit_stream)
                                                   NetSerfQtCompressor::Compress(double) (net_serf_qt_compressor)
                                                   _LdtobLargeNoMb (?xprintflarge_nomb)
                                                   _PrintfLargeNoMb (?xprintflarge_nomb)
                                                   test_net_serf_qt_streaming() (iar_serf_test)

    -------------------------------------------------------------------------
  LIBRARY MODULE, NAME : ?MOVE_LONG8_XDATA_IDATA

  SEGMENTS IN THE MODULE
  ======================
RCODE
  Relative segment, address: CODE 000011C0 - 000011CC (0xd bytes), align: 0
  Segment part 0.
           ENTRY                   ADDRESS         REF BY
           =====                   =======         ======
           ?MOVE_LONG8_XDATA_IDATA
                                   000011C0        ?PUSH_XSTACK_I (?PUSH_XSTACK_I)

    -------------------------------------------------------------------------
  LIBRARY MODULE, NAME : ?MOVE_LONG8_XDATA_XDATA

  SEGMENTS IN THE MODULE
  ======================
RCODE
  Relative segment, address: CODE 000011CD - 000011ED (0x21 bytes), align: 0
  Segment part 0.
           ENTRY                   ADDRESS         REF BY
           =====                   =======         ======
           ?MOVE_LONG8_XDATA_XDATA
                                   000011CD        ?PUSH_XSTACK8_X (?PUSH_XSTACK8_X)
                                                   div (?div)
                                                   file_reader_read_next(file_reader_t *, trajectory_point_t *) (file_reader)
                                                   load_test_data(char const *) (iar_serf_test)

    -------------------------------------------------------------------------
  LIBRARY MODULE, NAME : ?S_DIV_MOD

  SEGMENTS IN THE MODULE
  ======================
RCODE
  Relative segment, address: CODE 000011EE - 0000122E (0x41 bytes), align: 0
  Segment part 0.
           ENTRY                   ADDRESS         REF BY
           =====                   =======         ======
           ?S_DIV_MOD              00001227        div (?div)
    -------------------------------------------------------------------------
RCODE
  Relative segment, address: CODE 0000122F - 00001287 (0x59 bytes), align: 0
  Segment part 1.             Intra module refs:   ?S_DIV_MOD
           ENTRY                   ADDRESS         REF BY
           =====                   =======         ======
           ?US_DIV_MOD             0000122F        test_net_serf_qt_streaming() (iar_serf_test)

    -------------------------------------------------------------------------
  LIBRARY MODULE, NAME : ?SS_SHR

  SEGMENTS IN THE MODULE
  ======================
RCODE
  Relative segment, address: CODE 00001288 - 0000128A (0x3 bytes), align: 0
  Segment part 1.             Intra module refs:   Segment part 2
           ENTRY                   ADDRESS         REF BY
           =====                   =======         ======
           ?SS_SHR                 00001288        InputBitStream::Peek(uint32_t) (input_bit_stream)
                                                   scale (?xprintflarge_nomb)
    -------------------------------------------------------------------------
RCODE
  Relative segment, address: CODE 0000128B - 00001297 (0xd bytes), align: 0
  Segment part 2.             Intra module refs:   ?SS_SHR

    -------------------------------------------------------------------------
  LIBRARY MODULE, NAME : ?US_SHR

  SEGMENTS IN THE MODULE
  ======================
RCODE
  Relative segment, address: CODE 00001298 - 0000129A (0x3 bytes), align: 0
  Segment part 1.             Intra module refs:   Segment part 2
           ENTRY                   ADDRESS         REF BY
           =====                   =======         ======
           ?US_SHR                 00001298        _LdtobLargeNoMb (?xprintflarge_nomb)
                                                   __iar_Dint (?xdint)
                                                   __iar_Log (?xlog)
                                                   fabsf (?fabsf)
    -------------------------------------------------------------------------
RCODE
  Relative segment, address: CODE 0000129B - 000012A6 (0xc bytes), align: 0
  Segment part 2.             Intra module refs:   ?US_SHR

    -------------------------------------------------------------------------
  LIBRARY MODULE, NAME : ?S_SHL

  SEGMENTS IN THE MODULE
  ======================
RCODE
  Relative segment, address: CODE 000012A7 - 000012A9 (0x3 bytes), align: 0
  Segment part 0.
           ENTRY                   ADDRESS         REF BY
           =====                   =======         ======
           ?S_SHL                  000012A7        Array<uint32_t>::operator=(Array<uint32_t> const &) (input_bit_stream)
                                                   EliasGammaCodec::Encode(long, OutputBitStream *) (elias_gamma_codec)
                                                   InputBitStream::HasMoreData() const (input_bit_stream)
                                                   InputBitStream::Peek(uint32_t) (input_bit_stream)
                                                   InputBitStream::SetBuffer(Array<uint8_t> const &) (input_bit_stream)
                                                   OutputBitStream::OutputBitStream(uint32_t) (output_bit_stream)
                                                   OutputBitStream::Refresh() (output_bit_stream)
                                                   OutputBitStream::Write(uint32_t, uint32_t) (output_bit_stream)
                                                   __iar_Dint (?xdint)
                                                   file_reader_read_next(file_reader_t *, trajectory_point_t *) (file_reader)
                                                   load_test_data(char const *) (iar_serf_test)
                                                   test_net_serf_qt_streaming() (iar_serf_test)
    -------------------------------------------------------------------------
RCODE
  Relative segment, address: CODE 000012AA - 000012AC (0x3 bytes), align: 0
  Segment part 1.             Intra module refs:   Segment part 2
           ENTRY                   ADDRESS         REF BY
           =====                   =======         ======
           ?S_SHL_REW              000012AA 
    -------------------------------------------------------------------------
RCODE
  Relative segment, address: CODE 000012AD - 000012B9 (0xd bytes), align: 0
  Segment part 2.             Intra module refs:   ?S_SHL
                                                   ?S_SHL_REW

    -------------------------------------------------------------------------
  LIBRARY MODULE, NAME : ?ALLOC_XSTACK8

  SEGMENTS IN THE MODULE
  ======================
RCODE
  Relative segment, address: CODE 000012BA - 000012CF (0x16 bytes), align: 0
  Segment part 0.
           ENTRY                   ADDRESS         REF BY
           =====                   =======         ======
           ?ALLOC_XSTACK8          000012BA        EliasGammaCodec::Encode(long, OutputBitStream *) (elias_gamma_codec)
                                                   InputBitStream::Forward(uint32_t) (input_bit_stream)
                                                   InputBitStream::Peek(uint32_t) (input_bit_stream)
                                                   InputBitStream::SetBuffer(Array<uint8_t> const &) (input_bit_stream)
                                                   NetSerfQtCompressor::Compress(double) (net_serf_qt_compressor)
                                                   NetSerfQtDecompressor::Decompress(Array<uint8_t> &) (net_serf_qt_decompressor)
                                                   OutputBitStream::GetBuffer(uint32_t) (output_bit_stream)
                                                   OutputBitStream::OutputBitStream(uint32_t) (output_bit_stream)
                                                   OutputBitStream::Write(uint32_t, uint32_t) (output_bit_stream)
                                                   _GenldLargeNoMb (?xprintflarge_nomb)
                                                   _LdtobLargeNoMb (?xprintflarge_nomb)
                                                   _LitobLargeNoMb (?xprintflarge_nomb)
                                                   _PrintfLargeNoMb (?xprintflarge_nomb)
                                                   __dwrite (?__dwrite)
                                                   __exit (?__exit)
                                                   __iar_Log (?xlog)
                                                   ceilf (?ceilf)
                                                   div (?div)
                                                   file_reader_init(file_reader_t *, char const *) (file_reader)
                                                   floorf (?floorf)
                                                   load_test_data(char const *) (iar_serf_test)
                                                   pad (?xprintflarge_nomb)
                                                   printf (?printf)
                                                   putchar (?putchar)
                                                   roundf (?roundf)
                                                   scale (?xprintflarge_nomb)
                                                   test_net_serf_qt_streaming() (iar_serf_test)

    -------------------------------------------------------------------------
  LIBRARY MODULE, NAME : ?DEALLOC_XSTACK8

  SEGMENTS IN THE MODULE
  ======================
RCODE
  Relative segment, address: CODE 000012D0 - 000012EA (0x1b bytes), align: 0
  Segment part 0.
           ENTRY                   ADDRESS         REF BY
           =====                   =======         ======
           ?DEALLOC_XSTACK8        000012D0        ?Subroutine0 (iar_serf_test)
                                                   ?Subroutine1 (input_bit_stream)
                                                   ?Subroutine2 (input_bit_stream)
                                                   ?Subroutine2 (output_bit_stream)
                                                   Array<uint32_t>::operator=(Array<uint32_t> const &) (input_bit_stream)
                                                   EliasGammaCodec::Decode(InputBitStream *) (elias_gamma_codec)
                                                   EliasGammaCodec::Encode(long, OutputBitStream *) (elias_gamma_codec)
                                                   InputBitStream::ReadBit() (input_bit_stream)
                                                   InputBitStream::SetBuffer(Array<uint8_t> const &) (input_bit_stream)
                                                   NetSerfQtCompressor::Compress(double) (net_serf_qt_compressor)
                                                   NetSerfQtDecompressor::Decompress(Array<uint8_t> &) (net_serf_qt_decompressor)
                                                   OutputBitStream::GetBuffer(uint32_t) (output_bit_stream)
                                                   OutputBitStream::OutputBitStream(uint32_t) (output_bit_stream)
                                                   OutputBitStream::Refresh() (output_bit_stream)
                                                   OutputBitStream::new OutputBitStream(uint32_t) (output_bit_stream)
                                                   Segment part 26 (output_bit_stream)
                                                   Segment part 40 (?xlog)
                                                   Segment part 83 (?xprintflarge_nomb)
                                                   _GenldLargeNoMb (?xprintflarge_nomb)
                                                   _LdtobLargeNoMb (?xprintflarge_nomb)
                                                   _PrintfLargeNoMb (?xprintflarge_nomb)
                                                   __dwrite (?__dwrite)
                                                   __write (?__write)
                                                   ceilf (?ceilf)
                                                   div (?div)
                                                   file_reader_init(file_reader_t *, char const *) (file_reader)
                                                   floorf (?floorf)
                                                   load_test_data(char const *) (iar_serf_test)
                                                   pad (?xprintflarge_nomb)
                                                   printf (?printf)
                                                   putchar (?putchar)
                                                   roundf (?roundf)
                                                   test_net_serf_qt_streaming() (iar_serf_test)

    -------------------------------------------------------------------------
  LIBRARY MODULE, NAME : ?ADD_XSTACK_DISP8

  SEGMENTS IN THE MODULE
  ======================
RCODE
  Relative segment, address: CODE 000012EB - 00001305 (0x1b bytes), align: 0
  Segment part 1.
           ENTRY                   ADDRESS         REF BY
           =====                   =======         ======
           ?ADD_XSTACK_DISP0_8     000012EB        ?PUSH_XSTACK_I (?PUSH_XSTACK_I)

    -------------------------------------------------------------------------
  LIBRARY MODULE, NAME : ?XSTACK_DISP8

  SEGMENTS IN THE MODULE
  ======================
RCODE
  Relative segment, address: CODE 00001306 - 0000130F (0xa bytes), align: 0
  Segment part 1.
           ENTRY                   ADDRESS         REF BY
           =====                   =======         ======
           ?XSTACK_DISP0_8         00001306        ?Subroutine1 (input_bit_stream)
                                                   ?Subroutine2 (output_bit_stream)
                                                   EliasGammaCodec::Encode(long, OutputBitStream *) (elias_gamma_codec)
                                                   InputBitStream::Forward(uint32_t) (input_bit_stream)
                                                   InputBitStream::Peek(uint32_t) (input_bit_stream)
                                                   InputBitStream::SetBuffer(Array<uint8_t> const &) (input_bit_stream)
                                                   NetSerfQtCompressor::Compress(double) (net_serf_qt_compressor)
                                                   NetSerfQtCompressor::NetSerfQtCompressor(double) (net_serf_qt_compressor)
                                                   NetSerfQtDecompressor::NetSerfQtDecompressor(double) (net_serf_qt_decompressor)
                                                   OutputBitStream::GetBuffer(uint32_t) (output_bit_stream)
                                                   OutputBitStream::OutputBitStream(uint32_t) (output_bit_stream)
                                                   OutputBitStream::Write(uint32_t, uint32_t) (output_bit_stream)
                                                   _GenldLargeNoMb (?xprintflarge_nomb)
                                                   _LdtobLargeNoMb (?xprintflarge_nomb)
                                                   _LitobLargeNoMb (?xprintflarge_nomb)
                                                   _PrintfLargeNoMb (?xprintflarge_nomb)
                                                   _PutcharsLargeNoMb (?xprintflarge_nomb)
                                                   __dwrite (?__dwrite)
                                                   __iar_Log (?xlog)
                                                   div (?div)
                                                   file_reader_init(file_reader_t *, char const *) (file_reader)
                                                   load_test_data(char const *) (iar_serf_test)
                                                   memcpy (?memcpy)
                                                   pad (?xprintflarge_nomb)
                                                   roundf (?roundf)
                                                   scale (?xprintflarge_nomb)
                                                   test_net_serf_qt_streaming() (iar_serf_test)

    -------------------------------------------------------------------------
  LIBRARY MODULE, NAME : ?XSTACK_DISP8_RP

  SEGMENTS IN THE MODULE
  ======================
RCODE
  Relative segment, address: CODE 00001310 - 00001317 (0x8 bytes), align: 0
  Segment part 0.
           ENTRY                   ADDRESS         REF BY
           =====                   =======         ======
           ?XSTACK_DISP100_8       00001310        _GenldLargeNoMb (?xprintflarge_nomb)
                                                   _LdtobLargeNoMb (?xprintflarge_nomb)
                                                   _PrintfLargeNoMb (?xprintflarge_nomb)
                                                   pad (?xprintflarge_nomb)
                                                   printf (?printf)
    -------------------------------------------------------------------------
RCODE
  Relative segment, address: CODE 00001318 - 0000131F (0x8 bytes), align: 0
  Segment part 1.
           ENTRY                   ADDRESS         REF BY
           =====                   =======         ======
           ?XSTACK_DISP101_8       00001318        _PrintfLargeNoMb (?xprintflarge_nomb)
                                                   load_test_data(char const *) (iar_serf_test)
                                                   test_net_serf_qt_streaming() (iar_serf_test)
    -------------------------------------------------------------------------
RCODE
  Relative segment, address: CODE 00001320 - 00001327 (0x8 bytes), align: 0
  Segment part 2.
           ENTRY                   ADDRESS         REF BY
           =====                   =======         ======
           ?XSTACK_DISP102_8       00001320        InputBitStream::SetBuffer(Array<uint8_t> const &) (input_bit_stream)
                                                   _PrintfLargeNoMb (?xprintflarge_nomb)
                                                   putchar (?putchar)
                                                   test_net_serf_qt_streaming() (iar_serf_test)

    -------------------------------------------------------------------------
  LIBRARY MODULE, NAME : ?CALL_IND

  SEGMENTS IN THE MODULE
  ======================
RCODE
  Relative segment, address: CODE 00001328 - 00001329 (0x2 bytes), align: 0
  Segment part 0.
           ENTRY                   ADDRESS         REF BY
           =====                   =======         ======
           ?CALL_IND               00001328        _PutcharLargeNoMb (?xprintflarge_nomb)
                                                   operator new(unsigned int) (?newop_0)

    -------------------------------------------------------------------------
  LIBRARY MODULE, NAME : ?BANKED_ENTER_XDATA

  SEGMENTS IN THE MODULE
  ======================
RCODE
  Relative segment, address: CODE 0000132A - 00001395 (0x6c bytes), align: 0
  Segment part 1.
           ENTRY                   ADDRESS         REF BY
           =====                   =======         ======
           ?BANKED_ENTER_XDATA     0000132A        ?Subroutine1 (input_bit_stream)
                                                   Array<uint32_t>::operator=(Array<uint32_t> const &) (input_bit_stream)
                                                   EliasGammaCodec::Decode(InputBitStream *) (elias_gamma_codec)
                                                   EliasGammaCodec::Encode(long, OutputBitStream *) (elias_gamma_codec)
                                                   InputBitStream::Forward(uint32_t) (input_bit_stream)
                                                   InputBitStream::HasMoreData() const (input_bit_stream)
                                                   InputBitStream::Peek(uint32_t) (input_bit_stream)
                                                   InputBitStream::ReadBit() (input_bit_stream)
                                                   InputBitStream::SetBuffer(Array<uint8_t> const &) (input_bit_stream)
                                                   NetSerfQtCompressor::Compress(double) (net_serf_qt_compressor)
                                                   NetSerfQtCompressor::NetSerfQtCompressor(double) (net_serf_qt_compressor)
                                                   NetSerfQtCompressor::~NetSerfQtCompressor() (net_serf_qt_compressor)
                                                   NetSerfQtDecompressor::Decompress(Array<uint8_t> &) (net_serf_qt_decompressor)
                                                   NetSerfQtDecompressor::NetSerfQtDecompressor(double) (net_serf_qt_decompressor)
                                                   NetSerfQtDecompressor::~NetSerfQtDecompressor() (net_serf_qt_decompressor)
                                                   OutputBitStream::Flush() (output_bit_stream)
                                                   OutputBitStream::GetBuffer(uint32_t) (output_bit_stream)
                                                   OutputBitStream::OutputBitStream(uint32_t) (output_bit_stream)
                                                   OutputBitStream::Refresh() (output_bit_stream)
                                                   OutputBitStream::Write(uint32_t, uint32_t) (output_bit_stream)
                                                   OutputBitStream::new OutputBitStream(uint32_t) (output_bit_stream)
                                                   _GenldLargeNoMb (?xprintflarge_nomb)
                                                   _LdtobLargeNoMb (?xprintflarge_nomb)
                                                   _LitobLargeNoMb (?xprintflarge_nomb)
                                                   _PrintfLargeNoMb (?xprintflarge_nomb)
                                                   _Prout (?xprout)
                                                   _PutcharLargeNoMb (?xprintflarge_nomb)
                                                   _PutcharsLargeNoMb (?xprintflarge_nomb)
                                                   __exit (?__exit)
                                                   __iar_Dint (?xdint)
                                                   __iar_Log (?xlog)
                                                   __xdata_free (?xxmemxfree)
                                                   __xdata_malloc (?xxmemxmalloc)
                                                   ceilf (?ceilf)
                                                   div (?div)
                                                   fabsf (?fabsf)
                                                   file_reader_init(file_reader_t *, char const *) (file_reader)
                                                   file_reader_read_next(file_reader_t *, trajectory_point_t *) (file_reader)
                                                   floorf (?floorf)
                                                   load_test_data(char const *) (iar_serf_test)
                                                   memcpy (?memcpy)
                                                   operator new(unsigned int) (?newop_0)
                                                   pad (?xprintflarge_nomb)
                                                   printf (?printf)
                                                   putchar (?putchar)
                                                   roundf (?roundf)
                                                   scale (?xprintflarge_nomb)
                                                   test_net_serf_qt_streaming() (iar_serf_test)

    -------------------------------------------------------------------------
  LIBRARY MODULE, NAME : ?BANKED_LEAVE_XDATA

  SEGMENTS IN THE MODULE
  ======================
RCODE
  Relative segment, address: CODE 00001396 - 000013DB (0x46 bytes), align: 0
  Segment part 1.
           ENTRY                   ADDRESS         REF BY
           =====                   =======         ======
           ?BANKED_LEAVE_XDATA     00001396        ?Subroutine0 (iar_serf_test)
                                                   ?Subroutine0 (input_bit_stream)
                                                   ?Subroutine0 (net_serf_qt_compressor)
                                                   ?Subroutine0 (net_serf_qt_decompressor)
                                                   ?Subroutine0 (output_bit_stream)
                                                   ?Subroutine1 (net_serf_qt_compressor)
                                                   ?Subroutine1 (net_serf_qt_decompressor)
                                                   Array<uint32_t>::operator=(Array<uint32_t> const &) (input_bit_stream)
                                                   EliasGammaCodec::Decode(InputBitStream *) (elias_gamma_codec)
                                                   EliasGammaCodec::Encode(long, OutputBitStream *) (elias_gamma_codec)
                                                   OutputBitStream::Refresh() (output_bit_stream)
                                                   Segment part 27 (output_bit_stream)
                                                   Segment part 34 (?xprintflarge_nomb)
                                                   Segment part 37 (input_bit_stream)
                                                   Segment part 40 (?xlog)
                                                   Segment part 84 (?xprintflarge_nomb)
                                                   _Prout (?xprout)
                                                   __iar_Dint (?xdint)
                                                   __xdata_free (?xxmemxfree)
                                                   __xdata_malloc (?xxmemxmalloc)
                                                   ceilf (?ceilf)
                                                   div (?div)
                                                   fabsf (?fabsf)
                                                   file_reader_init(file_reader_t *, char const *) (file_reader)
                                                   file_reader_read_next(file_reader_t *, trajectory_point_t *) (file_reader)
                                                   floorf (?floorf)
                                                   load_test_data(char const *) (iar_serf_test)
                                                   memcpy (?memcpy)
                                                   operator new(unsigned int) (?newop_0)
                                                   printf (?printf)
                                                   putchar (?putchar)
                                                   roundf (?roundf)

    -------------------------------------------------------------------------
  LIBRARY MODULE, NAME : ?PUSH_XSTACK_I

  SEGMENTS IN THE MODULE
  ======================
RCODE
  Relative segment, address: CODE 000013DC - 000013DF (0x4 bytes), align: 0
  Segment part 0.
           ENTRY                   ADDRESS         REF BY
           =====                   =======         ======
           ?PUSH_XSTACK_I_FOUR     000013DC        ?Subroutine1 (input_bit_stream)
                                                   EliasGammaCodec::Decode(InputBitStream *) (elias_gamma_codec)
                                                   EliasGammaCodec::Encode(long, OutputBitStream *) (elias_gamma_codec)
                                                   NetSerfQtCompressor::Compress(double) (net_serf_qt_compressor)
                                                   OutputBitStream::new OutputBitStream(uint32_t) (output_bit_stream)
                                                   test_net_serf_qt_streaming() (iar_serf_test)
    -------------------------------------------------------------------------
RCODE
  Relative segment, address: CODE 000013E0 - 000013E3 (0x4 bytes), align: 0
  Segment part 2.
           ENTRY                   ADDRESS         REF BY
           =====                   =======         ======
           ?PUSH_XSTACK_I_TWO      000013E0        Array<uint32_t>::operator=(Array<uint32_t> const &) (input_bit_stream)
                                                   EliasGammaCodec::Encode(long, OutputBitStream *) (elias_gamma_codec)
                                                   InputBitStream::SetBuffer(Array<uint8_t> const &) (input_bit_stream)
                                                   OutputBitStream::GetBuffer(uint32_t) (output_bit_stream)
                                                   OutputBitStream::OutputBitStream(uint32_t) (output_bit_stream)
                                                   OutputBitStream::Refresh() (output_bit_stream)
                                                   _GenldLargeNoMb (?xprintflarge_nomb)
                                                   _LdtobLargeNoMb (?xprintflarge_nomb)
                                                   _PrintfLargeNoMb (?xprintflarge_nomb)
                                                   load_test_data(char const *) (iar_serf_test)
                                                   pad (?xprintflarge_nomb)
                                                   printf (?printf)
                                                   putchar (?putchar)
                                                   test_net_serf_qt_streaming() (iar_serf_test)
    -------------------------------------------------------------------------
RCODE
  Relative segment, address: CODE 000013E4 - 000013F0 (0xd bytes), align: 0
  Segment part 4.             Intra module refs:   ?PUSH_XSTACK_I_FOUR
                                                   ?PUSH_XSTACK_I_TWO
           ENTRY                   ADDRESS         REF BY
           =====                   =======         ======
           ?PUSH_XSTACK_I          000013E4 

    -------------------------------------------------------------------------
  LIBRARY MODULE, NAME : ?PUSH_XSTACK8_X

  SEGMENTS IN THE MODULE
  ======================
RCODE
  Relative segment, address: CODE 000013F1 - 000013F4 (0x4 bytes), align: 0
  Segment part 1.
           ENTRY                   ADDRESS         REF BY
           =====                   =======         ======
           ?PUSH_XSTACK8_X_FOUR    000013F1        ?Subroutine2 (output_bit_stream)
                                                   EliasGammaCodec::Encode(long, OutputBitStream *) (elias_gamma_codec)
                                                   InputBitStream::ReadBit() (input_bit_stream)
                                                   NetSerfQtCompressor::Compress(double) (net_serf_qt_compressor)
                                                   NetSerfQtDecompressor::Decompress(Array<uint8_t> &) (net_serf_qt_decompressor)
                                                   load_test_data(char const *) (iar_serf_test)
                                                   test_net_serf_qt_streaming() (iar_serf_test)
    -------------------------------------------------------------------------
RCODE
  Relative segment, address: CODE 000013F5 - 000013F8 (0x4 bytes), align: 0
  Segment part 3.
           ENTRY                   ADDRESS         REF BY
           =====                   =======         ======
           ?PUSH_XSTACK8_X_TWO     000013F5        InputBitStream::SetBuffer(Array<uint8_t> const &) (input_bit_stream)
                                                   NetSerfQtCompressor::Compress(double) (net_serf_qt_compressor)
                                                   _LdtobLargeNoMb (?xprintflarge_nomb)
                                                   _PrintfLargeNoMb (?xprintflarge_nomb)
                                                   __write (?__write)
                                                   test_net_serf_qt_streaming() (iar_serf_test)
    -------------------------------------------------------------------------
RCODE
  Relative segment, address: CODE 000013F9 - 00001421 (0x29 bytes), align: 0
  Segment part 5.             Intra module refs:   ?PUSH_XSTACK8_X_FOUR
                                                   ?PUSH_XSTACK8_X_TWO
           ENTRY                   ADDRESS         REF BY
           =====                   =======         ======
           ?PUSH_XSTACK8_X         000013F9 

    -------------------------------------------------------------------------
  LIBRARY MODULE, NAME : ?US_SWITCH_DENSE

  SEGMENTS IN THE MODULE
  ======================
RCODE
  Relative segment, address: CODE 00001422 - 00001428 (0x7 bytes), align: 0
  Segment part 0.
           ENTRY                   ADDRESS         REF BY
           =====                   =======         ======
           ?US_SWITCH_DENSE        00001422        roundf (?roundf)
           ?US_SD_CFI_INV_BEGINS   00001422 
    -------------------------------------------------------------------------
RCODE
  Relative segment, address: CODE 00001429 - 00001466 (0x3e bytes), align: 0
  Segment part 2.             Intra module refs:   Segment part 0
    -------------------------------------------------------------------------
RCODE
  Relative segment, address: CODE 00001467 - 00001467 (0x1 bytes), align: 0
  Segment part 4.             Intra module refs:   Segment part 0
           ENTRY                   ADDRESS         REF BY
           =====                   =======         ======
           ?US_SD_CFI_INV_ENDS     00001468 

    -------------------------------------------------------------------------
  LIBRARY MODULE, NAME : ?UC_SWITCH_SPARSE

  SEGMENTS IN THE MODULE
  ======================
RCODE
  Relative segment, address: CODE 00001468 - 0000146E (0x7 bytes), align: 0
  Segment part 0.
           ENTRY                   ADDRESS         REF BY
           =====                   =======         ======
           ?UC_SWITCH_SPARSE       00001468        _PrintfLargeNoMb (?xprintflarge_nomb)
           ?UC_SS_CFI_INV_BEGINS   00001468 
    -------------------------------------------------------------------------
RCODE
  Relative segment, address: CODE 0000146F - 00001490 (0x22 bytes), align: 0
  Segment part 2.             Intra module refs:   Segment part 0
           ENTRY                   ADDRESS         REF BY
           =====                   =======         ======
           ?UC_SWITCH_SPARSE_LEAVE
                                   00001485        Segment part 0 (?UC_JMP_IF_IN_RANGE)
                                                   Segment part 0 (?UC_JMP_IF_VALUE)
    -------------------------------------------------------------------------
RCODE
  Relative segment, address: CODE 00001491 - 00001491 (0x1 bytes), align: 0
  Segment part 4.             Intra module refs:   Segment part 0
           ENTRY                   ADDRESS         REF BY
           =====                   =======         ======
           ?UC_SS_CFI_INV_ENDS     00001492 

    -------------------------------------------------------------------------
  LIBRARY MODULE, NAME : ?UC_JMP_IF_IN_RANGE

  SEGMENTS IN THE MODULE
  ======================
RCODE
  Relative segment, address: CODE 00001492 - 000014B0 (0x1f bytes), align: 0
  Segment part 0.
           ENTRY                   ADDRESS         REF BY
           =====                   =======         ======
           ?UC_JMP_IF_IN_RANGE     00001492        ?UC_SWITCH_SPARSE_LEAVE (?UC_SWITCH_SPARSE)
           ?UC_JR_CFI_INV_BEGINS   00001492 
           ?UC_JR_CFI_INV_ENDS     000014B1 

    -------------------------------------------------------------------------
  LIBRARY MODULE, NAME : ?UC_JMP_IF_VALUE

  SEGMENTS IN THE MODULE
  ======================
RCODE
  Relative segment, address: CODE 000014B1 - 000014C6 (0x16 bytes), align: 0
  Segment part 0.
           ENTRY                   ADDRESS         REF BY
           =====                   =======         ======
           ?UC_JMP_IF_VALUE        000014B1        ?UC_SWITCH_SPARSE_LEAVE (?UC_SWITCH_SPARSE)
           ?UC_JMP_IF_VALUE_CFI_INV_BEGINS
                                   000014B1 
           ?UC_JMP_IF_VALUE_CFI_INV_ENDS
                                   000014C7 

    -------------------------------------------------------------------------
  LIBRARY MODULE, NAME : ?memchr

  SEGMENTS IN THE MODULE
  ======================
<BANKED_CODE> 1 (was BANKED_CODE)
  Relative segment, address: CODE 000056D2 - 00005709 (0x38 bytes), align: 0
  Segment part 8.             Intra module refs:   __iar_Memchr::?relay
           ENTRY                   ADDRESS         REF BY
           =====                   =======         ======
           __iar_Memchr            000056D2 
               is indirectly called
               XSTACK = 00000002 ( 00000000 )
               ISTACK = 00000000 ( 00000002 )
    -------------------------------------------------------------------------
BANK_RELAYS
  Relative segment, address: CODE 00000652 - 00000657 (0x6 bytes), align: 0
  Segment part 9.
           ENTRY                   ADDRESS         REF BY
           =====                   =======         ======
           __iar_Memchr::?relay    00000652        _PrintfLargeNoMb (?xprintflarge_nomb)

    -------------------------------------------------------------------------
  LIBRARY MODULE, NAME : ?memcpy

  SEGMENTS IN THE MODULE
  ======================
<BANKED_CODE> 1 (was BANKED_CODE)
  Relative segment, address: CODE 00005695 - 000056D1 (0x3d bytes), align: 0
  Segment part 6.             Intra module refs:   memcpy::?relay
           ENTRY                   ADDRESS         REF BY
           =====                   =======         ======
           memcpy                  00005695 
               is indirectly called
               XSTACK = 00000002 ( 00000009 )
               ISTACK = 00000000 ( 00000001 )
    -------------------------------------------------------------------------
BANK_RELAYS
  Relative segment, address: CODE 00000658 - 0000065D (0x6 bytes), align: 0
  Segment part 7.
           ENTRY                   ADDRESS         REF BY
           =====                   =======         ======
           memcpy::?relay          00000658        Array<uint32_t>::operator=(Array<uint32_t> const &) (input_bit_stream)
                                                   InputBitStream::SetBuffer(Array<uint8_t> const &) (input_bit_stream)
                                                   OutputBitStream::GetBuffer(uint32_t) (output_bit_stream)
                                                   _GenldLargeNoMb (?xprintflarge_nomb)
                                                   _LdtobLargeNoMb (?xprintflarge_nomb)

    -------------------------------------------------------------------------
  LIBRARY MODULE, NAME : ?memset

  SEGMENTS IN THE MODULE
  ======================
<BANKED_CODE> 1 (was BANKED_CODE)
  Relative segment, address: CODE 0000573E - 00005769 (0x2c bytes), align: 0
  Segment part 6.             Intra module refs:   memset::?relay
           ENTRY                   ADDRESS         REF BY
           =====                   =======         ======
           memset                  0000573E 
               is indirectly called
               XSTACK = 00000002 ( 00000000 )
               ISTACK = 00000000 ( 00000002 )
    -------------------------------------------------------------------------
BANK_RELAYS
  Relative segment, address: CODE 0000065E - 00000663 (0x6 bytes), align: 0
  Segment part 7.
           ENTRY                   ADDRESS         REF BY
           =====                   =======         ======
           memset::?relay          0000065E        InputBitStream::SetBuffer(Array<uint8_t> const &) (input_bit_stream)
                                                   OutputBitStream::GetBuffer(uint32_t) (output_bit_stream)
                                                   OutputBitStream::OutputBitStream(uint32_t) (output_bit_stream)
                                                   OutputBitStream::Refresh() (output_bit_stream)

    -------------------------------------------------------------------------
  LIBRARY MODULE, NAME : ?new

  SEGMENTS IN THE MODULE
  ======================
XDATA_Z
  Relative segment, address: XDATA 000009D7 - 000009D8 (0x2 bytes), align: 0
  Segment part 6.
           ENTRY                   ADDRESS         REF BY
           =====                   =======         ======
           __iar_New_hand          000009D7        operator new(unsigned int) (?newop_0)

    -------------------------------------------------------------------------
  LIBRARY MODULE, NAME : ?newop_0

  SEGMENTS IN THE MODULE
  ======================
<BANKED_CODE> 1 (was BANKED_CODE)
  Relative segment, address: CODE 0000570A - 0000573D (0x34 bytes), align: 0
  Segment part 6.             Intra module refs:   operator new(unsigned int)::?relay
           ENTRY                   ADDRESS         REF BY
           =====                   =======         ======
           operator new(unsigned int)
                                   0000570A 
               calls direct
               XSTACK = 00000000 ( 0000000A )
    -------------------------------------------------------------------------
BANK_RELAYS
  Relative segment, address: CODE 00000664 - 00000669 (0x6 bytes), align: 0
  Segment part 7.
           ENTRY                   ADDRESS         REF BY
           =====                   =======         ======
           operator new(unsigned int)::?relay
                                   00000664        NetSerfQtDecompressor::NetSerfQtDecompressor(double) (net_serf_qt_decompressor)
                                                   OutputBitStream::new OutputBitStream(uint32_t) (output_bit_stream)

    -------------------------------------------------------------------------
  LIBRARY MODULE, NAME : ?nomemory

  SEGMENTS IN THE MODULE
  ======================
<BANKED_CODE> 1 (was BANKED_CODE)
  Relative segment, address: CODE 0000585D - 0000586A (0xe bytes), align: 0
  Segment part 22.            Intra module refs:   _Nomemory()::?relay
           ENTRY                   ADDRESS         REF BY
           =====                   =======         ======
           _Nomemory()             0000585D 
               calls direct
               ISTACK = 00000000 ( 00000002 )
    -------------------------------------------------------------------------
BANK_RELAYS
  Relative segment, address: CODE 0000066A - 0000066F (0x6 bytes), align: 0
  Segment part 23.
           ENTRY                   ADDRESS         REF BY
           =====                   =======         ======
           _Nomemory()::?relay     0000066A        operator new(unsigned int) (?newop_0)

    -------------------------------------------------------------------------
  LIBRARY MODULE, NAME : ?printf

  SEGMENTS IN THE MODULE
  ======================
<BANKED_CODE> 1 (was BANKED_CODE)
  Relative segment, address: CODE 0000560E - 00005657 (0x4a bytes), align: 0
  Segment part 6.             Intra module refs:   printf::?relay
           ENTRY                   ADDRESS         REF BY
           =====                   =======         ======
           printf                  0000560E 
               calls direct
               XSTACK = 00000000 ( 00000010 )
    -------------------------------------------------------------------------
BANK_RELAYS
  Relative segment, address: CODE 00000670 - 00000675 (0x6 bytes), align: 0
  Segment part 7.
           ENTRY                   ADDRESS         REF BY
           =====                   =======         ======
           printf::?relay          00000670        InputBitStream::SetBuffer(Array<uint8_t> const &) (input_bit_stream)
                                                   OutputBitStream::OutputBitStream(uint32_t) (output_bit_stream)
                                                   load_test_data(char const *) (iar_serf_test)
                                                   main (iar_serf_test)
                                                   test_net_serf_qt_streaming() (iar_serf_test)

    -------------------------------------------------------------------------
  LIBRARY MODULE, NAME : ?putchar

  SEGMENTS IN THE MODULE
  ======================
<BANKED_CODE> 1 (was BANKED_CODE)
  Relative segment, address: CODE 00005564 - 000055BC (0x59 bytes), align: 0
  Segment part 6.             Intra module refs:   putchar::?relay
           ENTRY                   ADDRESS         REF BY
           =====                   =======         ======
           putchar                 00005564 
               calls direct
               XSTACK = 00000000 ( 0000000D )
               ISTACK = 00000000 ( 00000001 )
    -------------------------------------------------------------------------
BANK_RELAYS
  Relative segment, address: CODE 00000676 - 0000067B (0x6 bytes), align: 0
  Segment part 7.
           ENTRY                   ADDRESS         REF BY
           =====                   =======         ======
           putchar::?relay         00000676        _Prout (?xprout)

    -------------------------------------------------------------------------
  LIBRARY MODULE, NAME : ?roundf

  SEGMENTS IN THE MODULE
  ======================
<BANKED_CODE> 1 (was BANKED_CODE)
  Relative segment, address: CODE 000052E8 - 0000537C (0x95 bytes), align: 0
  Segment part 10.            Intra module refs:   roundf::?relay
           ENTRY                   ADDRESS         REF BY
           =====                   =======         ======
           roundf                  000052E8 
               calls direct
               XSTACK = 00000000 ( 00000014 )
    -------------------------------------------------------------------------
BANK_RELAYS
  Relative segment, address: CODE 0000067C - 00000681 (0x6 bytes), align: 0
  Segment part 11.
           ENTRY                   ADDRESS         REF BY
           =====                   =======         ======
           roundf::?relay          0000067C        NetSerfQtCompressor::Compress(double) (net_serf_qt_compressor)

    -------------------------------------------------------------------------
  LIBRARY MODULE, NAME : ?strchr

  SEGMENTS IN THE MODULE
  ======================
<BANKED_CODE> 1 (was BANKED_CODE)
  Relative segment, address: CODE 000057BB - 000057DF (0x25 bytes), align: 0
  Segment part 8.             Intra module refs:   __iar_Strchr::?relay
           ENTRY                   ADDRESS         REF BY
           =====                   =======         ======
           __iar_Strchr            000057BB 
               is indirectly called
               ISTACK = 00000000 ( 00000002 )
    -------------------------------------------------------------------------
BANK_RELAYS
  Relative segment, address: CODE 00000682 - 00000687 (0x6 bytes), align: 0
  Segment part 9.
           ENTRY                   ADDRESS         REF BY
           =====                   =======         ======
           __iar_Strchr::?relay    00000682        _PrintfLargeNoMb (?xprintflarge_nomb)

    -------------------------------------------------------------------------
  LIBRARY MODULE, NAME : ?strlen

  SEGMENTS IN THE MODULE
  ======================
<BANKED_CODE> 1 (was BANKED_CODE)
  Relative segment, address: CODE 00005804 - 00005821 (0x1e bytes), align: 0
  Segment part 6.             Intra module refs:   strlen::?relay
           ENTRY                   ADDRESS         REF BY
           =====                   =======         ======
           strlen                  00005804 
               is indirectly called
               ISTACK = 00000000 ( 00000002 )
    -------------------------------------------------------------------------
BANK_RELAYS
  Relative segment, address: CODE 00000688 - 0000068D (0x6 bytes), align: 0
  Segment part 7.
           ENTRY                   ADDRESS         REF BY
           =====                   =======         ======
           strlen::?relay          00000688        _PrintfLargeNoMb (?xprintflarge_nomb)

    -------------------------------------------------------------------------
  LIBRARY MODULE, NAME : ?xdint

  SEGMENTS IN THE MODULE
  ======================
<BANKED_CODE> 1 (was BANKED_CODE)
  Relative segment, address: CODE 000051E5 - 000052E7 (0x103 bytes), align: 0
  Segment part 6.             Intra module refs:   __iar_Dint::?relay
           ENTRY                   ADDRESS         REF BY
           =====                   =======         ======
           __iar_Dint              000051E5 
               XSTACK = 00000000 ( 0000000C )
    -------------------------------------------------------------------------
BANK_RELAYS
  Relative segment, address: CODE 0000068E - 00000693 (0x6 bytes), align: 0
  Segment part 7.
           ENTRY                   ADDRESS         REF BY
           =====                   =======         ======
           __iar_Dint::?relay      0000068E        ceilf (?ceilf)
                                                   floorf (?floorf)
                                                   roundf (?roundf)

    -------------------------------------------------------------------------
  LIBRARY MODULE, NAME : ?xgetmemchunk

  SEGMENTS IN THE MODULE
  ======================
<BANKED_CODE> 1 (was BANKED_CODE)
  Relative segment, address: CODE 00005658 - 00005694 (0x3d bytes), align: 0
  Segment part 7.             Intra module refs:   __xdata_GetMemChunk::?relay
           ENTRY                   ADDRESS         REF BY
           =====                   =======         ======
           __xdata_GetMemChunk     00005658 
               ISTACK = 00000000 ( 00000002 )
    -------------------------------------------------------------------------
XDATA_Z
  Relative segment, address: XDATA 000009D9 - 000009DA (0x2 bytes), align: 0
  Segment part 6.             Intra module refs:   __xdata_GetMemChunk
    -------------------------------------------------------------------------
BANK_RELAYS
  Relative segment, address: CODE 00000694 - 00000699 (0x6 bytes), align: 0
  Segment part 8.
           ENTRY                   ADDRESS         REF BY
           =====                   =======         ======
           __xdata_GetMemChunk::?relay
                                   00000694        __xdata_malloc (?xxmemxmalloc)

    -------------------------------------------------------------------------
  LIBRARY MODULE, NAME : ?xlog

  SEGMENTS IN THE MODULE
  ======================
<BANKED_CODE> 1 (was BANKED_CODE)
  Relative segment, address: CODE 0000432B - 0000474F (0x425 bytes), align: 0
  Segment part 38.            Intra module refs:   __iar_Log::?relay
           ENTRY                   ADDRESS         REF BY
           =====                   =======         ======
           __iar_Log               0000432B 
               XSTACK = 00000002 ( 0000001C )
               ISTACK = 00000000 ( 0000000C )
    -------------------------------------------------------------------------
<BANKED_CODE> 1 (was BANKED_CODE)
  Relative segment, address: CODE 00004750 - 00004757 (0x8 bytes), align: 0
  Segment part 40.            Intra module refs:   __iar_Log
    -------------------------------------------------------------------------
<BANKED_CODE> 1 (was BANKED_CODE)
  Relative segment, address: CODE 00004758 - 00004769 (0x12 bytes), align: 0
  Segment part 43.            Intra module refs:   __iar_Log
    -------------------------------------------------------------------------
XDATA_I
  Relative segment, address: XDATA 00000E56 - 00000E59 (0x4 bytes), align: 0
  Segment part 6.             Intra module refs:   __iar_Log
           ENTRY                   ADDRESS         REF BY
           =====                   =======         ======
           __Constant_3f3504f3     00000E56 
    -------------------------------------------------------------------------
XDATA_ID
  Relative segment, address: CODE 00000501 - 00000504 (0x4 bytes), align: 0
  Segment part 7.             Intra module refs:   __Constant_3f3504f3
    -------------------------------------------------------------------------
XDATA_I
  Relative segment, address: XDATA 00000E5A - 00000E5D (0x4 bytes), align: 0
  Segment part 14.            Intra module refs:   __iar_Log
           ENTRY                   ADDRESS         REF BY
           =====                   =======         ======
           __Constant_3e990215     00000E5A 
    -------------------------------------------------------------------------
XDATA_ID
  Relative segment, address: CODE 00000505 - 00000508 (0x4 bytes), align: 0
  Segment part 15.            Intra module refs:   __Constant_3e990215
    -------------------------------------------------------------------------
XDATA_I
  Relative segment, address: XDATA 00000E5E - 00000E61 (0x4 bytes), align: 0
  Segment part 16.            Intra module refs:   __iar_Log
           ENTRY                   ADDRESS         REF BY
           =====                   =======         ======
           __Constant_3eccae11     00000E5E 
    -------------------------------------------------------------------------
XDATA_ID
  Relative segment, address: CODE 00000509 - 0000050C (0x4 bytes), align: 0
  Segment part 17.            Intra module refs:   __Constant_3eccae11
    -------------------------------------------------------------------------
XDATA_I
  Relative segment, address: XDATA 00000E62 - 00000E65 (0x4 bytes), align: 0
  Segment part 18.            Intra module refs:   __iar_Log
           ENTRY                   ADDRESS         REF BY
           =====                   =======         ======
           __Constant_3f2aaac0     00000E62 
    -------------------------------------------------------------------------
XDATA_ID
  Relative segment, address: CODE 0000050D - 00000510 (0x4 bytes), align: 0
  Segment part 19.            Intra module refs:   __Constant_3f2aaac0
    -------------------------------------------------------------------------
XDATA_I
  Relative segment, address: XDATA 00000E66 - 00000E69 (0x4 bytes), align: 0
  Segment part 20.            Intra module refs:   __iar_Log
           ENTRY                   ADDRESS         REF BY
           =====                   =======         ======
           __Constant_33fbe8e8     00000E66 
    -------------------------------------------------------------------------
XDATA_ID
  Relative segment, address: CODE 00000511 - 00000514 (0x4 bytes), align: 0
  Segment part 21.            Intra module refs:   __Constant_33fbe8e8
    -------------------------------------------------------------------------
XDATA_I
  Relative segment, address: XDATA 00000E6A - 00000E6D (0x4 bytes), align: 0
  Segment part 22.            Intra module refs:   __iar_Log
           ENTRY                   ADDRESS         REF BY
           =====                   =======         ======
           __Constant_3f317216     00000E6A 
    -------------------------------------------------------------------------
XDATA_ID
  Relative segment, address: CODE 00000515 - 00000518 (0x4 bytes), align: 0
  Segment part 23.            Intra module refs:   __Constant_3f317216
    -------------------------------------------------------------------------
XDATA_I
  Relative segment, address: XDATA 00000E6E - 00000E71 (0x4 bytes), align: 0
  Segment part 24.            Intra module refs:   __iar_Log
           ENTRY                   ADDRESS         REF BY
           =====                   =======         ======
           __Constant_3ede5bd8     00000E6E 
    -------------------------------------------------------------------------
XDATA_ID
  Relative segment, address: CODE 00000519 - 0000051C (0x4 bytes), align: 0
  Segment part 25.            Intra module refs:   __Constant_3ede5bd8
    -------------------------------------------------------------------------
XDATA_I
  Relative segment, address: XDATA 00000E72 - 00000E75 (0x4 bytes), align: 0
  Segment part 26.            Intra module refs:   __iar_Log
           ENTRY                   ADDRESS         REF BY
           =====                   =======         ======
           __Constant_32a93728     00000E72 
    -------------------------------------------------------------------------
XDATA_ID
  Relative segment, address: CODE 0000051D - 00000520 (0x4 bytes), align: 0
  Segment part 27.            Intra module refs:   __Constant_32a93728
    -------------------------------------------------------------------------
XDATA_I
  Relative segment, address: XDATA 00000E76 - 00000E79 (0x4 bytes), align: 0
  Segment part 28.            Intra module refs:   __iar_Log
           ENTRY                   ADDRESS         REF BY
           =====                   =======         ======
           __Constant_33a13ef4     00000E76 
    -------------------------------------------------------------------------
XDATA_ID
  Relative segment, address: CODE 00000521 - 00000524 (0x4 bytes), align: 0
  Segment part 29.            Intra module refs:   __Constant_33a13ef4
    -------------------------------------------------------------------------
XDATA_I
  Relative segment, address: XDATA 00000E7A - 00000E7D (0x4 bytes), align: 0
  Segment part 30.            Intra module refs:   __iar_Log
           ENTRY                   ADDRESS         REF BY
           =====                   =======         ======
           __Constant_3ede5bd9     00000E7A 
    -------------------------------------------------------------------------
XDATA_ID
  Relative segment, address: CODE 00000525 - 00000528 (0x4 bytes), align: 0
  Segment part 31.            Intra module refs:   __Constant_3ede5bd9
    -------------------------------------------------------------------------
XDATA_I
  Relative segment, address: XDATA 00000E7E - 00000E81 (0x4 bytes), align: 0
  Segment part 32.            Intra module refs:   __iar_Log
           ENTRY                   ADDRESS         REF BY
           =====                   =======         ======
           __Constant_3e9a2098     00000E7E 
    -------------------------------------------------------------------------
XDATA_ID
  Relative segment, address: CODE 00000529 - 0000052C (0x4 bytes), align: 0
  Segment part 33.            Intra module refs:   __Constant_3e9a2098
    -------------------------------------------------------------------------
XDATA_I
  Relative segment, address: XDATA 00000E82 - 00000E85 (0x4 bytes), align: 0
  Segment part 34.            Intra module refs:   __iar_Log
           ENTRY                   ADDRESS         REF BY
           =====                   =======         ======
           __Constant_3fb8aa3b     00000E82 
    -------------------------------------------------------------------------
XDATA_ID
  Relative segment, address: CODE 0000052D - 00000530 (0x4 bytes), align: 0
  Segment part 35.            Intra module refs:   __Constant_3fb8aa3b
    -------------------------------------------------------------------------
XDATA_I
  Relative segment, address: XDATA 00000E86 - 00000E89 (0x4 bytes), align: 0
  Segment part 36.            Intra module refs:   __iar_Log
           ENTRY                   ADDRESS         REF BY
           =====                   =======         ======
           __Constant_32a57060     00000E86 
    -------------------------------------------------------------------------
XDATA_ID
  Relative segment, address: CODE 00000531 - 00000534 (0x4 bytes), align: 0
  Segment part 37.            Intra module refs:   __Constant_32a57060
    -------------------------------------------------------------------------
BANK_RELAYS
  Relative segment, address: CODE 0000069A - 0000069F (0x6 bytes), align: 0
  Segment part 39.
           ENTRY                   ADDRESS         REF BY
           =====                   =======         ======
           __iar_Log::?relay       0000069A        EliasGammaCodec::Encode(long, OutputBitStream *) (elias_gamma_codec)

    -------------------------------------------------------------------------
  LIBRARY MODULE, NAME : ?xprintflarge_nomb

  SEGMENTS IN THE MODULE
  ======================
<BANKED_CODE> 1 (was BANKED_CODE)
  Relative segment, address: CODE 000014C7 - 00001D57 (0x891 bytes), align: 0
  Segment part 32.            Intra module refs:   _PrintfLargeNoMb::?relay
           ENTRY                   ADDRESS         REF BY
           =====                   =======         ======
           _PrintfLargeNoMb        000014C7 
               calls direct
               XSTACK = 00000004 ( 00000070 )
               ISTACK = 00000000 ( 00000002 )
    -------------------------------------------------------------------------
<BANKED_CODE> 1 (was BANKED_CODE)
  Relative segment, address: CODE 00001D58 - 00001D5C (0x5 bytes), align: 0
  Segment part 34.            Intra module refs:   _PrintfLargeNoMb
                                                   _PutcharLargeNoMb
    -------------------------------------------------------------------------
<BANKED_CODE> 1 (was BANKED_CODE)
  Relative segment, address: CODE 00001D5D - 00001D67 (0xb bytes), align: 0
  Segment part 35.            Intra module refs:   _PrintfLargeNoMb
    -------------------------------------------------------------------------
<BANKED_CODE> 1 (was BANKED_CODE)
  Relative segment, address: CODE 00001D68 - 00001D85 (0x1e bytes), align: 0
  Segment part 36.            Intra module refs:   _PrintfLargeNoMb
    -------------------------------------------------------------------------
<BANKED_CODE> 1 (was BANKED_CODE)
  Relative segment, address: CODE 00001D86 - 00001D8D (0x8 bytes), align: 0
  Segment part 37.            Intra module refs:   _PrintfLargeNoMb
    -------------------------------------------------------------------------
<BANKED_CODE> 1 (was BANKED_CODE)
  Relative segment, address: CODE 00001D8E - 00001D93 (0x6 bytes), align: 0
  Segment part 38.            Intra module refs:   _PrintfLargeNoMb
    -------------------------------------------------------------------------
<BANKED_CODE> 1 (was BANKED_CODE)
  Relative segment, address: CODE 00001D94 - 00001D99 (0x6 bytes), align: 0
  Segment part 39.            Intra module refs:   _PrintfLargeNoMb
    -------------------------------------------------------------------------
<BANKED_CODE> 1 (was BANKED_CODE)
  Relative segment, address: CODE 00001D9A - 00001DA5 (0xc bytes), align: 0
  Segment part 40.            Intra module refs:   _PrintfLargeNoMb
    -------------------------------------------------------------------------
<BANKED_CODE> 1 (was BANKED_CODE)
  Relative segment, address: CODE 00001DA6 - 00001DAB (0x6 bytes), align: 0
  Segment part 41.            Intra module refs:   _PrintfLargeNoMb
    -------------------------------------------------------------------------
<BANKED_CODE> 1 (was BANKED_CODE)
  Relative segment, address: CODE 00001DAC - 00001DB1 (0x6 bytes), align: 0
  Segment part 42.            Intra module refs:   _PrintfLargeNoMb
    -------------------------------------------------------------------------
<BANKED_CODE> 1 (was BANKED_CODE)
  Relative segment, address: CODE 00001DB2 - 00001DB9 (0x8 bytes), align: 0
  Segment part 43.            Intra module refs:   Segment part 41
                                                   Segment part 42
                                                   Segment part 45
    -------------------------------------------------------------------------
<BANKED_CODE> 1 (was BANKED_CODE)
  Relative segment, address: CODE 00001DBA - 00001DC4 (0xb bytes), align: 0
  Segment part 44.            Intra module refs:   Segment part 38
                                                   Segment part 43
    -------------------------------------------------------------------------
<BANKED_CODE> 1 (was BANKED_CODE)
  Relative segment, address: CODE 00001DC5 - 00001DCA (0x6 bytes), align: 0
  Segment part 45.            Intra module refs:   _PrintfLargeNoMb
    -------------------------------------------------------------------------
<BANKED_CODE> 1 (was BANKED_CODE)
  Relative segment, address: CODE 00001DCB - 00001DD5 (0xb bytes), align: 0
  Segment part 46.            Intra module refs:   _PrintfLargeNoMb
    -------------------------------------------------------------------------
<BANKED_CODE> 1 (was BANKED_CODE)
  Relative segment, address: CODE 00001DD6 - 00001DE0 (0xb bytes), align: 0
  Segment part 47.            Intra module refs:   _PrintfLargeNoMb
    -------------------------------------------------------------------------
<BANKED_CODE> 1 (was BANKED_CODE)
  Relative segment, address: CODE 00001DE1 - 00001DEB (0xb bytes), align: 0
  Segment part 48.            Intra module refs:   _PrintfLargeNoMb
    -------------------------------------------------------------------------
<BANKED_CODE> 1 (was BANKED_CODE)
  Relative segment, address: CODE 00001DEC - 00001DF7 (0xc bytes), align: 0
  Segment part 49.            Intra module refs:   _PrintfLargeNoMb
    -------------------------------------------------------------------------
<BANKED_CODE> 1 (was BANKED_CODE)
  Relative segment, address: CODE 00001DF8 - 00001DFB (0x4 bytes), align: 0
  Segment part 50.            Intra module refs:   _PrintfLargeNoMb
    -------------------------------------------------------------------------
<BANKED_CODE> 1 (was BANKED_CODE)
  Relative segment, address: CODE 00001DFC - 00001E08 (0xd bytes), align: 0
  Segment part 51.            Intra module refs:   Segment part 50
                                                   Segment part 54
    -------------------------------------------------------------------------
<BANKED_CODE> 1 (was BANKED_CODE)
  Relative segment, address: CODE 00001E09 - 00001E0C (0x4 bytes), align: 0
  Segment part 52.            Intra module refs:   Segment part 51
                                                   Segment part 55
    -------------------------------------------------------------------------
<BANKED_CODE> 1 (was BANKED_CODE)
  Relative segment, address: CODE 00001E0D - 00001E12 (0x6 bytes), align: 0
  Segment part 53.            Intra module refs:   Segment part 107
                                                   Segment part 48
                                                   Segment part 52
    -------------------------------------------------------------------------
<BANKED_CODE> 1 (was BANKED_CODE)
  Relative segment, address: CODE 00001E13 - 00001E1B (0x9 bytes), align: 0
  Segment part 54.            Intra module refs:   _PrintfLargeNoMb
    -------------------------------------------------------------------------
<BANKED_CODE> 1 (was BANKED_CODE)
  Relative segment, address: CODE 00001E1C - 00001E27 (0xc bytes), align: 0
  Segment part 55.            Intra module refs:   _PrintfLargeNoMb
    -------------------------------------------------------------------------
<BANKED_CODE> 1 (was BANKED_CODE)
  Relative segment, address: CODE 00001E28 - 00001E39 (0x12 bytes), align: 0
  Segment part 56.            Intra module refs:   Segment part 51
                                                   Segment part 55
    -------------------------------------------------------------------------
<BANKED_CODE> 1 (was BANKED_CODE)
  Relative segment, address: CODE 00001E3A - 00001E3D (0x4 bytes), align: 0
  Segment part 57.            Intra module refs:   _PrintfLargeNoMb
    -------------------------------------------------------------------------
<BANKED_CODE> 1 (was BANKED_CODE)
  Relative segment, address: CODE 00001E3E - 00001E4B (0xe bytes), align: 0
  Segment part 58.            Intra module refs:   Segment part 57
                                                   Segment part 59
    -------------------------------------------------------------------------
<BANKED_CODE> 1 (was BANKED_CODE)
  Relative segment, address: CODE 00001E4C - 00001E54 (0x9 bytes), align: 0
  Segment part 59.            Intra module refs:   _PrintfLargeNoMb
    -------------------------------------------------------------------------
<BANKED_CODE> 1 (was BANKED_CODE)
  Relative segment, address: CODE 00001E55 - 00001E67 (0x13 bytes), align: 0
  Segment part 60.            Intra module refs:   _PrintfLargeNoMb
    -------------------------------------------------------------------------
<BANKED_CODE> 1 (was BANKED_CODE)
  Relative segment, address: CODE 00001E68 - 00001E70 (0x9 bytes), align: 0
  Segment part 61.            Intra module refs:   Segment part 58
                                                   Segment part 60
    -------------------------------------------------------------------------
<BANKED_CODE> 1 (was BANKED_CODE)
  Relative segment, address: CODE 00001E71 - 00001EE6 (0x76 bytes), align: 0
  Segment part 62.            Intra module refs:   pad::?relay
           LOCAL                   ADDRESS         
           =====                   =======         
           pad                     00001E71 
               calls direct
               XSTACK = 0000006E ( 00000015 )
               ISTACK = 00000000 ( 00000001 )
    -------------------------------------------------------------------------
<BANKED_CODE> 1 (was BANKED_CODE)
  Relative segment, address: CODE 00001EE7 - 000021F7 (0x311 bytes), align: 0
  Segment part 64.            Intra module refs:   _LitobLargeNoMb::?relay
           LOCAL                   ADDRESS         
           =====                   =======         
           _LitobLargeNoMb         00001EE7 
               XSTACK = 0000006C ( 00000023 )
               ISTACK = 00000000 ( 00000002 )
    -------------------------------------------------------------------------
<BANKED_CODE> 1 (was BANKED_CODE)
  Relative segment, address: CODE 000021F8 - 000021F8 (0x1 bytes), align: 0
  Segment part 66.            Intra module refs:   _LitobLargeNoMb
    -------------------------------------------------------------------------
<BANKED_CODE> 1 (was BANKED_CODE)
  Relative segment, address: CODE 000021F9 - 000021FF (0x7 bytes), align: 0
  Segment part 67.            Intra module refs:   Segment part 135
                                                   Segment part 66
    -------------------------------------------------------------------------
<BANKED_CODE> 1 (was BANKED_CODE)
  Relative segment, address: CODE 00002200 - 00002205 (0x6 bytes), align: 0
  Segment part 68.            Intra module refs:   _GenldLargeNoMb
    -------------------------------------------------------------------------
<BANKED_CODE> 1 (was BANKED_CODE)
  Relative segment, address: CODE 00002206 - 00002209 (0x4 bytes), align: 0
  Segment part 69.            Intra module refs:   Segment part 68
                                                   _GenldLargeNoMb
                                                   _LitobLargeNoMb
                                                   _PrintfLargeNoMb
    -------------------------------------------------------------------------
<BANKED_CODE> 1 (was BANKED_CODE)
  Relative segment, address: CODE 0000220A - 0000220D (0x4 bytes), align: 0
  Segment part 70.            Intra module refs:   Segment part 135
                                                   Segment part 139
                                                   Segment part 144
                                                   Segment part 39
                                                   Segment part 46
                                                   Segment part 69
    -------------------------------------------------------------------------
<BANKED_CODE> 1 (was BANKED_CODE)
  Relative segment, address: CODE 0000220E - 00002217 (0xa bytes), align: 0
  Segment part 71.            Intra module refs:   Segment part 130
                                                   Segment part 134
                                                   Segment part 137
                                                   Segment part 70
    -------------------------------------------------------------------------
<BANKED_CODE> 1 (was BANKED_CODE)
  Relative segment, address: CODE 00002218 - 0000221F (0x8 bytes), align: 0
  Segment part 72.            Intra module refs:   _LitobLargeNoMb
                                                   _PrintfLargeNoMb
    -------------------------------------------------------------------------
<BANKED_CODE> 1 (was BANKED_CODE)
  Relative segment, address: CODE 00002220 - 00002224 (0x5 bytes), align: 0
  Segment part 73.            Intra module refs:   _LitobLargeNoMb
                                                   _PrintfLargeNoMb
    -------------------------------------------------------------------------
<BANKED_CODE> 1 (was BANKED_CODE)
  Relative segment, address: CODE 00002225 - 00002235 (0x11 bytes), align: 0
  Segment part 74.            Intra module refs:   _LitobLargeNoMb
    -------------------------------------------------------------------------
<BANKED_CODE> 1 (was BANKED_CODE)
  Relative segment, address: CODE 00002236 - 0000223A (0x5 bytes), align: 0
  Segment part 75.            Intra module refs:   _LdtobLargeNoMb
                                                   _LitobLargeNoMb
                                                   _PrintfLargeNoMb
    -------------------------------------------------------------------------
<BANKED_CODE> 1 (was BANKED_CODE)
  Relative segment, address: CODE 0000223B - 0000223E (0x4 bytes), align: 0
  Segment part 76.            Intra module refs:   _LdtobLargeNoMb
                                                   _LitobLargeNoMb
    -------------------------------------------------------------------------
<BANKED_CODE> 1 (was BANKED_CODE)
  Relative segment, address: CODE 0000223F - 00002247 (0x9 bytes), align: 0
  Segment part 77.            Intra module refs:   Segment part 76
                                                   _LdtobLargeNoMb
    -------------------------------------------------------------------------
<BANKED_CODE> 1 (was BANKED_CODE)
  Relative segment, address: CODE 00002248 - 000022C8 (0x81 bytes), align: 0
  Segment part 78.            Intra module refs:   scale::?relay
           LOCAL                   ADDRESS         
           =====                   =======         
           scale                   00002248 
               XSTACK = 00000052 ( 00000014 )
    -------------------------------------------------------------------------
<BANKED_CODE> 1 (was BANKED_CODE)
  Relative segment, address: CODE 000022C9 - 000022D2 (0xa bytes), align: 0
  Segment part 80.            Intra module refs:   _PrintfLargeNoMb
                                                   scale
    -------------------------------------------------------------------------
<BANKED_CODE> 1 (was BANKED_CODE)
  Relative segment, address: CODE 000022D3 - 000027B8 (0x4e6 bytes), align: 0
  Segment part 81.            Intra module refs:   _LdtobLargeNoMb::?relay
           LOCAL                   ADDRESS         
           =====                   =======         
           _LdtobLargeNoMb         000022D3 
               calls direct
               XSTACK = 0000006C ( 00000054 )
               ISTACK = 00000000 ( 00000001 )
    -------------------------------------------------------------------------
<BANKED_CODE> 1 (was BANKED_CODE)
  Relative segment, address: CODE 000027B9 - 000027BB (0x3 bytes), align: 0
  Segment part 83.            Intra module refs:   _GenldLargeNoMb
                                                   _LdtobLargeNoMb
                                                   _LitobLargeNoMb
                                                   pad
                                                   scale
    -------------------------------------------------------------------------
<BANKED_CODE> 1 (was BANKED_CODE)
  Relative segment, address: CODE 000027BC - 000027C0 (0x5 bytes), align: 0
  Segment part 84.            Intra module refs:   Segment part 83
                                                   _PutcharsLargeNoMb
    -------------------------------------------------------------------------
<BANKED_CODE> 1 (was BANKED_CODE)
  Relative segment, address: CODE 000027C1 - 000027C9 (0x9 bytes), align: 0
  Segment part 85.            Intra module refs:   _LdtobLargeNoMb
    -------------------------------------------------------------------------
<BANKED_CODE> 1 (was BANKED_CODE)
  Relative segment, address: CODE 000027CA - 000027CB (0x2 bytes), align: 0
  Segment part 86.            Intra module refs:   _GenldLargeNoMb
                                                   _LdtobLargeNoMb
    -------------------------------------------------------------------------
<BANKED_CODE> 1 (was BANKED_CODE)
  Relative segment, address: CODE 000027CC - 000027D0 (0x5 bytes), align: 0
  Segment part 87.            Intra module refs:   Segment part 86
                                                   _GenldLargeNoMb
    -------------------------------------------------------------------------
<BANKED_CODE> 1 (was BANKED_CODE)
  Relative segment, address: CODE 000027D1 - 000027D2 (0x2 bytes), align: 0
  Segment part 88.            Intra module refs:   Segment part 87
                                                   _GenldLargeNoMb
                                                   _LdtobLargeNoMb
    -------------------------------------------------------------------------
<BANKED_CODE> 1 (was BANKED_CODE)
  Relative segment, address: CODE 000027D3 - 000027DA (0x8 bytes), align: 0
  Segment part 89.            Intra module refs:   Segment part 88
                                                   _GenldLargeNoMb
                                                   _LdtobLargeNoMb
                                                   _LitobLargeNoMb
                                                   _PrintfLargeNoMb
                                                   _PutcharsLargeNoMb
    -------------------------------------------------------------------------
<BANKED_CODE> 1 (was BANKED_CODE)
  Relative segment, address: CODE 000027DB - 000027DF (0x5 bytes), align: 0
  Segment part 90.            Intra module refs:   _LdtobLargeNoMb
                                                   _LitobLargeNoMb
    -------------------------------------------------------------------------
<BANKED_CODE> 1 (was BANKED_CODE)
  Relative segment, address: CODE 000027E0 - 000027EE (0xf bytes), align: 0
  Segment part 91.            Intra module refs:   _LdtobLargeNoMb
    -------------------------------------------------------------------------
<BANKED_CODE> 1 (was BANKED_CODE)
  Relative segment, address: CODE 000027EF - 000027F7 (0x9 bytes), align: 0
  Segment part 92.            Intra module refs:   _LdtobLargeNoMb
                                                   _LitobLargeNoMb
    -------------------------------------------------------------------------
<BANKED_CODE> 1 (was BANKED_CODE)
  Relative segment, address: CODE 000027F8 - 000027FB (0x4 bytes), align: 0
  Segment part 93.            Intra module refs:   _LdtobLargeNoMb
                                                   _PrintfLargeNoMb
    -------------------------------------------------------------------------
<BANKED_CODE> 1 (was BANKED_CODE)
  Relative segment, address: CODE 000027FC - 000027FD (0x2 bytes), align: 0
  Segment part 94.            Intra module refs:   _GenldLargeNoMb
                                                   _LdtobLargeNoMb
    -------------------------------------------------------------------------
<BANKED_CODE> 1 (was BANKED_CODE)
  Relative segment, address: CODE 000027FE - 00002802 (0x5 bytes), align: 0
  Segment part 95.            Intra module refs:   Segment part 94
                                                   _LdtobLargeNoMb
                                                   _LitobLargeNoMb
                                                   _PrintfLargeNoMb
                                                   _PutcharLargeNoMb
                                                   scale
    -------------------------------------------------------------------------
<BANKED_CODE> 1 (was BANKED_CODE)
  Relative segment, address: CODE 00002803 - 00002807 (0x5 bytes), align: 0
  Segment part 96.            Intra module refs:   Segment part 124
                                                   Segment part 37
                                                   Segment part 95
                                                   _GenldLargeNoMb
                                                   _LitobLargeNoMb
    -------------------------------------------------------------------------
<BANKED_CODE> 1 (was BANKED_CODE)
  Relative segment, address: CODE 00002808 - 00002811 (0xa bytes), align: 0
  Segment part 97.            Intra module refs:   _LdtobLargeNoMb
                                                   _LitobLargeNoMb
    -------------------------------------------------------------------------
<BANKED_CODE> 1 (was BANKED_CODE)
  Relative segment, address: CODE 00002812 - 00002817 (0x6 bytes), align: 0
  Segment part 98.            Intra module refs:   _GenldLargeNoMb
                                                   _LdtobLargeNoMb
                                                   _LitobLargeNoMb
    -------------------------------------------------------------------------
<BANKED_CODE> 1 (was BANKED_CODE)
  Relative segment, address: CODE 00002818 - 0000281B (0x4 bytes), align: 0
  Segment part 99.            Intra module refs:   _GenldLargeNoMb
                                                   _LdtobLargeNoMb
                                                   _LitobLargeNoMb
    -------------------------------------------------------------------------
<BANKED_CODE> 1 (was BANKED_CODE)
  Relative segment, address: CODE 0000281C - 0000281C (0x1 bytes), align: 0
  Segment part 100.           Intra module refs:   Segment part 148
                                                   Segment part 99
    -------------------------------------------------------------------------
<BANKED_CODE> 1 (was BANKED_CODE)
  Relative segment, address: CODE 0000281D - 00002824 (0x8 bytes), align: 0
  Segment part 101.           Intra module refs:   Segment part 100
                                                   Segment part 46
                                                   _LdtobLargeNoMb
    -------------------------------------------------------------------------
<BANKED_CODE> 1 (was BANKED_CODE)
  Relative segment, address: CODE 00002825 - 00002825 (0x1 bytes), align: 0
  Segment part 102.           Intra module refs:   _LdtobLargeNoMb
                                                   _PrintfLargeNoMb
    -------------------------------------------------------------------------
<BANKED_CODE> 1 (was BANKED_CODE)
  Relative segment, address: CODE 00002826 - 00002827 (0x2 bytes), align: 0
  Segment part 103.           Intra module refs:   Segment part 102
                                                   _LdtobLargeNoMb
    -------------------------------------------------------------------------
<BANKED_CODE> 1 (was BANKED_CODE)
  Relative segment, address: CODE 00002828 - 00002828 (0x1 bytes), align: 0
  Segment part 104.           Intra module refs:   Segment part 103
                                                   _GenldLargeNoMb
                                                   _LdtobLargeNoMb
                                                   _LitobLargeNoMb
    -------------------------------------------------------------------------
<BANKED_CODE> 1 (was BANKED_CODE)
  Relative segment, address: CODE 00002829 - 0000282E (0x6 bytes), align: 0
  Segment part 105.           Intra module refs:   Segment part 104
                                                   _PrintfLargeNoMb
    -------------------------------------------------------------------------
<BANKED_CODE> 1 (was BANKED_CODE)
  Relative segment, address: CODE 0000282F - 00002834 (0x6 bytes), align: 0
  Segment part 106.           Intra module refs:   _GenldLargeNoMb
                                                   _LitobLargeNoMb
    -------------------------------------------------------------------------
<BANKED_CODE> 1 (was BANKED_CODE)
  Relative segment, address: CODE 00002835 - 00002838 (0x4 bytes), align: 0
  Segment part 107.           Intra module refs:   Segment part 106
                                                   _LdtobLargeNoMb
                                                   _LitobLargeNoMb
                                                   _PrintfLargeNoMb
    -------------------------------------------------------------------------
<BANKED_CODE> 1 (was BANKED_CODE)
  Relative segment, address: CODE 00002839 - 00002843 (0xb bytes), align: 0
  Segment part 108.           Intra module refs:   _LdtobLargeNoMb
    -------------------------------------------------------------------------
<BANKED_CODE> 1 (was BANKED_CODE)
  Relative segment, address: CODE 00002844 - 00002849 (0x6 bytes), align: 0
  Segment part 109.           Intra module refs:   _GenldLargeNoMb
                                                   _LdtobLargeNoMb
                                                   _LitobLargeNoMb
                                                   _PrintfLargeNoMb
    -------------------------------------------------------------------------
<BANKED_CODE> 1 (was BANKED_CODE)
  Relative segment, address: CODE 0000284A - 00002857 (0xe bytes), align: 0
  Segment part 110.           Intra module refs:   _LdtobLargeNoMb
    -------------------------------------------------------------------------
<BANKED_CODE> 1 (was BANKED_CODE)
  Relative segment, address: CODE 00002858 - 00002858 (0x1 bytes), align: 0
  Segment part 111.           Intra module refs:   Segment part 110
                                                   _LdtobLargeNoMb
    -------------------------------------------------------------------------
<BANKED_CODE> 1 (was BANKED_CODE)
  Relative segment, address: CODE 00002859 - 0000285E (0x6 bytes), align: 0
  Segment part 112.           Intra module refs:   Segment part 111
                                                   _LdtobLargeNoMb
    -------------------------------------------------------------------------
<BANKED_CODE> 1 (was BANKED_CODE)
  Relative segment, address: CODE 0000285F - 00002864 (0x6 bytes), align: 0
  Segment part 113.           Intra module refs:   Segment part 112
                                                   _GenldLargeNoMb
                                                   _LdtobLargeNoMb
                                                   _LitobLargeNoMb
                                                   _PrintfLargeNoMb
                                                   _PutcharLargeNoMb
    -------------------------------------------------------------------------
<BANKED_CODE> 1 (was BANKED_CODE)
  Relative segment, address: CODE 00002865 - 00002D56 (0x4f2 bytes), align: 0
  Segment part 114.           Intra module refs:   _GenldLargeNoMb::?relay
           LOCAL                   ADDRESS         
           =====                   =======         
           _GenldLargeNoMb         00002865 
               calls direct
               XSTACK = 00000054 ( 0000002F )
               ISTACK = 00000000 ( 00000001 )
    -------------------------------------------------------------------------
<BANKED_CODE> 1 (was BANKED_CODE)
  Relative segment, address: CODE 00002D57 - 00002D5C (0x6 bytes), align: 0
  Segment part 116.           Intra module refs:   Segment part 74
                                                   _GenldLargeNoMb
                                                   _PutcharsLargeNoMb
                                                   pad
    -------------------------------------------------------------------------
<BANKED_CODE> 1 (was BANKED_CODE)
  Relative segment, address: CODE 00002D5D - 00002D69 (0xd bytes), align: 0
  Segment part 117.           Intra module refs:   _GenldLargeNoMb
    -------------------------------------------------------------------------
<BANKED_CODE> 1 (was BANKED_CODE)
  Relative segment, address: CODE 00002D6A - 00002D78 (0xf bytes), align: 0
  Segment part 118.           Intra module refs:   _GenldLargeNoMb
    -------------------------------------------------------------------------
<BANKED_CODE> 1 (was BANKED_CODE)
  Relative segment, address: CODE 00002D79 - 00002D7E (0x6 bytes), align: 0
  Segment part 119.           Intra module refs:   _GenldLargeNoMb
                                                   _LdtobLargeNoMb
    -------------------------------------------------------------------------
<BANKED_CODE> 1 (was BANKED_CODE)
  Relative segment, address: CODE 00002D7F - 00002D89 (0xb bytes), align: 0
  Segment part 120.           Intra module refs:   _GenldLargeNoMb
    -------------------------------------------------------------------------
<BANKED_CODE> 1 (was BANKED_CODE)
  Relative segment, address: CODE 00002D8A - 00002D91 (0x8 bytes), align: 0
  Segment part 121.           Intra module refs:   Segment part 120
                                                   _LdtobLargeNoMb
                                                   pad
    -------------------------------------------------------------------------
<BANKED_CODE> 1 (was BANKED_CODE)
  Relative segment, address: CODE 00002D92 - 00002D95 (0x4 bytes), align: 0
  Segment part 122.           Intra module refs:   _GenldLargeNoMb
                                                   _PrintfLargeNoMb
    -------------------------------------------------------------------------
<BANKED_CODE> 1 (was BANKED_CODE)
  Relative segment, address: CODE 00002D96 - 00002D99 (0x4 bytes), align: 0
  Segment part 123.           Intra module refs:   Segment part 122
                                                   Segment part 131
    -------------------------------------------------------------------------
<BANKED_CODE> 1 (was BANKED_CODE)
  Relative segment, address: CODE 00002D9A - 00002DA1 (0x8 bytes), align: 0
  Segment part 124.           Intra module refs:   Segment part 123
                                                   Segment part 127
    -------------------------------------------------------------------------
<BANKED_CODE> 1 (was BANKED_CODE)
  Relative segment, address: CODE 00002DA2 - 00002DA7 (0x6 bytes), align: 0
  Segment part 125.           Intra module refs:   _GenldLargeNoMb
                                                   _PrintfLargeNoMb
                                                   _PutcharsLargeNoMb
    -------------------------------------------------------------------------
<BANKED_CODE> 1 (was BANKED_CODE)
  Relative segment, address: CODE 00002DA8 - 00002DAB (0x4 bytes), align: 0
  Segment part 126.           Intra module refs:   _GenldLargeNoMb
                                                   _PrintfLargeNoMb
    -------------------------------------------------------------------------
<BANKED_CODE> 1 (was BANKED_CODE)
  Relative segment, address: CODE 00002DAC - 00002DB0 (0x5 bytes), align: 0
  Segment part 127.           Intra module refs:   Segment part 126
                                                   Segment part 128
                                                   Segment part 138
                                                   Segment part 47
                                                   Segment part 72
    -------------------------------------------------------------------------
<BANKED_CODE> 1 (was BANKED_CODE)
  Relative segment, address: CODE 00002DB1 - 00002DB9 (0x9 bytes), align: 0
  Segment part 128.           Intra module refs:   _GenldLargeNoMb
                                                   _LdtobLargeNoMb
    -------------------------------------------------------------------------
<BANKED_CODE> 1 (was BANKED_CODE)
  Relative segment, address: CODE 00002DBA - 00002DBD (0x4 bytes), align: 0
  Segment part 129.           Intra module refs:   _GenldLargeNoMb
    -------------------------------------------------------------------------
<BANKED_CODE> 1 (was BANKED_CODE)
  Relative segment, address: CODE 00002DBE - 00002DCA (0xd bytes), align: 0
  Segment part 130.           Intra module refs:   Segment part 129
                                                   Segment part 147
    -------------------------------------------------------------------------
<BANKED_CODE> 1 (was BANKED_CODE)
  Relative segment, address: CODE 00002DCB - 00002DD2 (0x8 bytes), align: 0
  Segment part 131.           Intra module refs:   _GenldLargeNoMb
                                                   _PrintfLargeNoMb
    -------------------------------------------------------------------------
<BANKED_CODE> 1 (was BANKED_CODE)
  Relative segment, address: CODE 00002DD3 - 00002DD8 (0x6 bytes), align: 0
  Segment part 132.           Intra module refs:   _GenldLargeNoMb
    -------------------------------------------------------------------------
<BANKED_CODE> 1 (was BANKED_CODE)
  Relative segment, address: CODE 00002DD9 - 00002DE4 (0xc bytes), align: 0
  Segment part 133.           Intra module refs:   _GenldLargeNoMb
    -------------------------------------------------------------------------
<BANKED_CODE> 1 (was BANKED_CODE)
  Relative segment, address: CODE 00002DE5 - 00002DEC (0x8 bytes), align: 0
  Segment part 134.           Intra module refs:   Segment part 133
                                                   Segment part 73
    -------------------------------------------------------------------------
<BANKED_CODE> 1 (was BANKED_CODE)
  Relative segment, address: CODE 00002DED - 00002DF3 (0x7 bytes), align: 0
  Segment part 135.           Intra module refs:   _GenldLargeNoMb
    -------------------------------------------------------------------------
<BANKED_CODE> 1 (was BANKED_CODE)
  Relative segment, address: CODE 00002DF4 - 00002DFF (0xc bytes), align: 0
  Segment part 136.           Intra module refs:   _GenldLargeNoMb
    -------------------------------------------------------------------------
<BANKED_CODE> 1 (was BANKED_CODE)
  Relative segment, address: CODE 00002E00 - 00002E07 (0x8 bytes), align: 0
  Segment part 137.           Intra module refs:   Segment part 132
                                                   Segment part 136
    -------------------------------------------------------------------------
<BANKED_CODE> 1 (was BANKED_CODE)
  Relative segment, address: CODE 00002E08 - 00002E11 (0xa bytes), align: 0
  Segment part 138.           Intra module refs:   _GenldLargeNoMb
    -------------------------------------------------------------------------
<BANKED_CODE> 1 (was BANKED_CODE)
  Relative segment, address: CODE 00002E12 - 00002E17 (0x6 bytes), align: 0
  Segment part 139.           Intra module refs:   _GenldLargeNoMb
                                                   _LitobLargeNoMb
    -------------------------------------------------------------------------
<BANKED_CODE> 1 (was BANKED_CODE)
  Relative segment, address: CODE 00002E18 - 00002E1C (0x5 bytes), align: 0
  Segment part 140.           Intra module refs:   _GenldLargeNoMb
                                                   _PrintfLargeNoMb
                                                   _PutcharLargeNoMb
    -------------------------------------------------------------------------
<BANKED_CODE> 1 (was BANKED_CODE)
  Relative segment, address: CODE 00002E1D - 00002E24 (0x8 bytes), align: 0
  Segment part 141.           Intra module refs:   _GenldLargeNoMb
    -------------------------------------------------------------------------
<BANKED_CODE> 1 (was BANKED_CODE)
  Relative segment, address: CODE 00002E25 - 00002E2D (0x9 bytes), align: 0
  Segment part 142.           Intra module refs:   Segment part 141
                                                   _GenldLargeNoMb
    -------------------------------------------------------------------------
<BANKED_CODE> 1 (was BANKED_CODE)
  Relative segment, address: CODE 00002E2E - 00002E35 (0x8 bytes), align: 0
  Segment part 143.           Intra module refs:   _GenldLargeNoMb
    -------------------------------------------------------------------------
<BANKED_CODE> 1 (was BANKED_CODE)
  Relative segment, address: CODE 00002E36 - 00002E47 (0x12 bytes), align: 0
  Segment part 144.           Intra module refs:   _GenldLargeNoMb
    -------------------------------------------------------------------------
<BANKED_CODE> 1 (was BANKED_CODE)
  Relative segment, address: CODE 00002E48 - 00002E50 (0x9 bytes), align: 0
  Segment part 145.           Intra module refs:   Segment part 144
                                                   _GenldLargeNoMb
    -------------------------------------------------------------------------
<BANKED_CODE> 1 (was BANKED_CODE)
  Relative segment, address: CODE 00002E51 - 00002E5C (0xc bytes), align: 0
  Segment part 146.           Intra module refs:   Segment part 144
                                                   _GenldLargeNoMb
    -------------------------------------------------------------------------
<BANKED_CODE> 1 (was BANKED_CODE)
  Relative segment, address: CODE 00002E5D - 00002E67 (0xb bytes), align: 0
  Segment part 147.           Intra module refs:   _GenldLargeNoMb
    -------------------------------------------------------------------------
<BANKED_CODE> 1 (was BANKED_CODE)
  Relative segment, address: CODE 00002E68 - 00002E70 (0x9 bytes), align: 0
  Segment part 148.           Intra module refs:   Segment part 147
                                                   Segment part 151
    -------------------------------------------------------------------------
<BANKED_CODE> 1 (was BANKED_CODE)
  Relative segment, address: CODE 00002E71 - 00002E79 (0x9 bytes), align: 0
  Segment part 149.           Intra module refs:   Segment part 140
                                                   Segment part 148
                                                   Segment part 93
    -------------------------------------------------------------------------
<BANKED_CODE> 1 (was BANKED_CODE)
  Relative segment, address: CODE 00002E7A - 00002E7A (0x1 bytes), align: 0
  Segment part 150.           Intra module refs:   _GenldLargeNoMb
    -------------------------------------------------------------------------
<BANKED_CODE> 1 (was BANKED_CODE)
  Relative segment, address: CODE 00002E7B - 00002E7D (0x3 bytes), align: 0
  Segment part 151.           Intra module refs:   Segment part 150
                                                   _GenldLargeNoMb
    -------------------------------------------------------------------------
<BANKED_CODE> 1 (was BANKED_CODE)
  Relative segment, address: CODE 00002E7E - 00002E8D (0x10 bytes), align: 0
  Segment part 152.           Intra module refs:   Segment part 151
                                                   _GenldLargeNoMb
    -------------------------------------------------------------------------
<BANKED_CODE> 1 (was BANKED_CODE)
  Relative segment, address: CODE 00002E8E - 00002EE0 (0x53 bytes), align: 0
  Segment part 153.           Intra module refs:   _PutcharLargeNoMb::?relay
           LOCAL                   ADDRESS         
           =====                   =======         
           _PutcharLargeNoMb       00002E8E 
               XSTACK = 0000006C ( 0000000E )
    -------------------------------------------------------------------------
<BANKED_CODE> 1 (was BANKED_CODE)
  Relative segment, address: CODE 00002EE1 - 00002F32 (0x52 bytes), align: 0
  Segment part 155.           Intra module refs:   _PutcharsLargeNoMb::?relay
           LOCAL                   ADDRESS         
           =====                   =======         
           _PutcharsLargeNoMb      00002EE1 
               calls direct
               XSTACK = 00000070 ( 00000010 )
    -------------------------------------------------------------------------
<BANKED_CODE> 1 (was BANKED_CODE)
  Relative segment, address: CODE 00002F33 - 00002F3D (0xb bytes), align: 0
  Segment part 157.           Intra module refs:   Segment part 119
                                                   _PutcharsLargeNoMb
    -------------------------------------------------------------------------
XDATA_ID
  Relative segment, address: CODE 00000535 - 0000053B (0x7 bytes), align: 0
  Segment part 7.             Intra module refs:   Segment part 6
    -------------------------------------------------------------------------
XDATA_ID
  Relative segment, address: CODE 0000053C - 0000053F (0x4 bytes), align: 0
  Segment part 9.             Intra module refs:   Segment part 8
    -------------------------------------------------------------------------
XDATA_ID
  Relative segment, address: CODE 00000540 - 00000543 (0x4 bytes), align: 0
  Segment part 11.            Intra module refs:   Segment part 10
    -------------------------------------------------------------------------
XDATA_ID
  Relative segment, address: CODE 00000544 - 00000547 (0x4 bytes), align: 0
  Segment part 13.            Intra module refs:   Segment part 12
    -------------------------------------------------------------------------
XDATA_ID
  Relative segment, address: CODE 00000548 - 0000054B (0x4 bytes), align: 0
  Segment part 15.            Intra module refs:   Segment part 14
    -------------------------------------------------------------------------
XDATA_ID
  Relative segment, address: CODE 0000054C - 0000054D (0x2 bytes), align: 0
  Segment part 17.            Intra module refs:   Segment part 16
    -------------------------------------------------------------------------
XDATA_ID
  Relative segment, address: CODE 0000054E - 00000551 (0x4 bytes), align: 0
  Segment part 19.            Intra module refs:   __Constant_ffff
    -------------------------------------------------------------------------
XDATA_ID
  Relative segment, address: CODE 00000552 - 00000555 (0x4 bytes), align: 0
  Segment part 23.            Intra module refs:   __Constant_7597
    -------------------------------------------------------------------------
XDATA_ID
  Relative segment, address: CODE 00000556 - 00000559 (0x4 bytes), align: 0
  Segment part 25.            Intra module refs:   __Constant_186a0
    -------------------------------------------------------------------------
XDATA_ID
  Relative segment, address: CODE 0000055A - 0000055D (0x4 bytes), align: 0
  Segment part 29.            Intra module refs:   __Constant_a
    -------------------------------------------------------------------------
XDATA_ID
  Relative segment, address: CODE 0000055E - 00000561 (0x4 bytes), align: 0
  Segment part 31.            Intra module refs:   __Constant_4cbebc20
    -------------------------------------------------------------------------
BANK_RELAYS
  Relative segment, address: CODE 000006A0 - 000006A5 (0x6 bytes), align: 0
  Segment part 33.
           ENTRY                   ADDRESS         REF BY
           =====                   =======         ======
           _PrintfLargeNoMb::?relay
                                   000006A0        printf (?printf)
    -------------------------------------------------------------------------
BANK_RELAYS
  Relative segment, address: CODE 000006A6 - 000006AB (0x6 bytes), align: 0
  Segment part 63.            Intra module refs:   _PrintfLargeNoMb
           LOCAL                   ADDRESS         
           =====                   =======         
           pad::?relay             000006A6 
    -------------------------------------------------------------------------
BANK_RELAYS
  Relative segment, address: CODE 000006AC - 000006B1 (0x6 bytes), align: 0
  Segment part 65.            Intra module refs:   _PrintfLargeNoMb
           LOCAL                   ADDRESS         
           =====                   =======         
           _LitobLargeNoMb::?relay
                                   000006AC 
    -------------------------------------------------------------------------
BANK_RELAYS
  Relative segment, address: CODE 000006B2 - 000006B7 (0x6 bytes), align: 0
  Segment part 79.            Intra module refs:   _LdtobLargeNoMb
           LOCAL                   ADDRESS         
           =====                   =======         
           scale::?relay           000006B2 
    -------------------------------------------------------------------------
BANK_RELAYS
  Relative segment, address: CODE 000006B8 - 000006BD (0x6 bytes), align: 0
  Segment part 82.            Intra module refs:   _PrintfLargeNoMb
           LOCAL                   ADDRESS         
           =====                   =======         
           _LdtobLargeNoMb::?relay
                                   000006B8 
    -------------------------------------------------------------------------
BANK_RELAYS
  Relative segment, address: CODE 000006BE - 000006C3 (0x6 bytes), align: 0
  Segment part 115.           Intra module refs:   _LdtobLargeNoMb
           LOCAL                   ADDRESS         
           =====                   =======         
           _GenldLargeNoMb::?relay
                                   000006BE 
    -------------------------------------------------------------------------
BANK_RELAYS
  Relative segment, address: CODE 000006C4 - 000006C9 (0x6 bytes), align: 0
  Segment part 154.           Intra module refs:   _PrintfLargeNoMb
                                                   _PutcharsLargeNoMb
           LOCAL                   ADDRESS         
           =====                   =======         
           _PutcharLargeNoMb::?relay
                                   000006C4 
    -------------------------------------------------------------------------
BANK_RELAYS
  Relative segment, address: CODE 000006CA - 000006CF (0x6 bytes), align: 0
  Segment part 156.           Intra module refs:   _PrintfLargeNoMb
                                                   pad
           LOCAL                   ADDRESS         
           =====                   =======         
           _PutcharsLargeNoMb::?relay
                                   000006CA 
    -------------------------------------------------------------------------
XDATA_I
  Relative segment, address: XDATA 00000E8A - 00000E90 (0x7 bytes), align: 0
  Segment part 6.             Intra module refs:   _PrintfLargeNoMb
    -------------------------------------------------------------------------
XDATA_I
  Relative segment, address: XDATA 00000E91 - 00000E94 (0x4 bytes), align: 0
  Segment part 8.             Intra module refs:   _LdtobLargeNoMb
    -------------------------------------------------------------------------
XDATA_I
  Relative segment, address: XDATA 00000E95 - 00000E98 (0x4 bytes), align: 0
  Segment part 10.            Intra module refs:   _LdtobLargeNoMb
    -------------------------------------------------------------------------
XDATA_I
  Relative segment, address: XDATA 00000E99 - 00000E9C (0x4 bytes), align: 0
  Segment part 12.            Intra module refs:   _LdtobLargeNoMb
    -------------------------------------------------------------------------
XDATA_I
  Relative segment, address: XDATA 00000E9D - 00000EA0 (0x4 bytes), align: 0
  Segment part 14.            Intra module refs:   _LdtobLargeNoMb
    -------------------------------------------------------------------------
XDATA_I
  Relative segment, address: XDATA 00000EA1 - 00000EA2 (0x2 bytes), align: 0
  Segment part 16.            Intra module refs:   _GenldLargeNoMb
    -------------------------------------------------------------------------
XDATA_I
  Relative segment, address: XDATA 00000EA3 - 00000EA6 (0x4 bytes), align: 0
  Segment part 18.            Intra module refs:   _PrintfLargeNoMb
           ENTRY                   ADDRESS         REF BY
           =====                   =======         ======
           __Constant_ffff         00000EA3 
    -------------------------------------------------------------------------
XDATA_I
  Relative segment, address: XDATA 00000EA7 - 00000EAA (0x4 bytes), align: 0
  Segment part 22.            Intra module refs:   _LdtobLargeNoMb
           ENTRY                   ADDRESS         REF BY
           =====                   =======         ======
           __Constant_7597         00000EA7 
    -------------------------------------------------------------------------
XDATA_I
  Relative segment, address: XDATA 00000EAB - 00000EAE (0x4 bytes), align: 0
  Segment part 24.            Intra module refs:   _LdtobLargeNoMb
           ENTRY                   ADDRESS         REF BY
           =====                   =======         ======
           __Constant_186a0        00000EAB 
    -------------------------------------------------------------------------
XDATA_I
  Relative segment, address: XDATA 00000EAF - 00000EB2 (0x4 bytes), align: 0
  Segment part 28.            Intra module refs:   _LdtobLargeNoMb
           ENTRY                   ADDRESS         REF BY
           =====                   =======         ======
           __Constant_a            00000EAF 
    -------------------------------------------------------------------------
XDATA_I
  Relative segment, address: XDATA 00000EB3 - 00000EB6 (0x4 bytes), align: 0
  Segment part 30.            Intra module refs:   _LdtobLargeNoMb
           ENTRY                   ADDRESS         REF BY
           =====                   =======         ======
           __Constant_4cbebc20     00000EB3 

    -------------------------------------------------------------------------
  LIBRARY MODULE, NAME : ?xprout

  SEGMENTS IN THE MODULE
  ======================
<BANKED_CODE> 1 (was BANKED_CODE)
  Relative segment, address: CODE 0000576A - 00005794 (0x2b bytes), align: 0
  Segment part 6.             Intra module refs:   _Prout::?relay
           ENTRY                   ADDRESS         REF BY
           =====                   =======         ======
           _Prout                  0000576A 
               calls direct
               XSTACK = 00000000 ( 0000000E )
    -------------------------------------------------------------------------
BANK_RELAYS
  Relative segment, address: CODE 000006D0 - 000006D5 (0x6 bytes), align: 0
  Segment part 7.
           ENTRY                   ADDRESS         REF BY
           =====                   =======         ======
           _Prout::?relay          000006D0        printf (?printf)

    -------------------------------------------------------------------------
  LIBRARY MODULE, NAME : ?xxmemxfree

  SEGMENTS IN THE MODULE
  ======================
<BANKED_CODE> 1 (was BANKED_CODE)
  Relative segment, address: CODE 000050A5 - 000051DC (0x138 bytes), align: 0
  Segment part 6.             Intra module refs:   __xdata_free::?relay
           ENTRY                   ADDRESS         REF BY
           =====                   =======         ======
           __xdata_free            000050A5 
               XSTACK = 0000000A ( 0000000E )
    -------------------------------------------------------------------------
<BANKED_CODE> 1 (was BANKED_CODE)
  Relative segment, address: CODE 000051DD - 000051E4 (0x8 bytes), align: 0
  Segment part 8.             Intra module refs:   __xdata_free
    -------------------------------------------------------------------------
BANK_RELAYS
  Relative segment, address: CODE 000006D6 - 000006DB (0x6 bytes), align: 0
  Segment part 7.
           ENTRY                   ADDRESS         REF BY
           =====                   =======         ======
           __xdata_free::?relay    000006D6        Array<uint32_t>::operator=(Array<uint32_t> const &) (input_bit_stream)
                                                   InputBitStream::SetBuffer(Array<uint8_t> const &) (input_bit_stream)
                                                   NetSerfQtCompressor::~NetSerfQtCompressor() (net_serf_qt_compressor)
                                                   NetSerfQtDecompressor::~NetSerfQtDecompressor() (net_serf_qt_decompressor)
                                                   OutputBitStream::OutputBitStream(uint32_t) (output_bit_stream)
                                                   __xdata_malloc (?xxmemxmalloc)
                                                   operator delete(void *) (?delop_0)
                                                   test_net_serf_qt_streaming() (iar_serf_test)

    -------------------------------------------------------------------------
  LIBRARY MODULE, NAME : ?xxmemxmalloc

  SEGMENTS IN THE MODULE
  ======================
XDATA_Z
  Relative segment, address: XDATA 000009DB - 000009DE (0x4 bytes), align: 0
  Segment part 6.             Intra module refs:   __xdata_malloc
           ENTRY                   ADDRESS         REF BY
           =====                   =======         ======
           __xdata_Aldata          000009DB        __xdata_free (?xxmemxfree)
    -------------------------------------------------------------------------
<BANKED_CODE> 1 (was BANKED_CODE)
  Relative segment, address: CODE 00004D96 - 00004F08 (0x173 bytes), align: 0
  Segment part 8.             Intra module refs:   __xdata_malloc::?relay
           ENTRY                   ADDRESS         REF BY
           =====                   =======         ======
           __xdata_malloc          00004D96 
               calls direct
               XSTACK = 0000000A ( 0000000F )
    -------------------------------------------------------------------------
<BANKED_CODE> 1 (was BANKED_CODE)
  Relative segment, address: CODE 00004F09 - 00004F11 (0x9 bytes), align: 0
  Segment part 10.            Intra module refs:   __xdata_malloc
    -------------------------------------------------------------------------
<BANKED_CODE> 1 (was BANKED_CODE)
  Relative segment, address: CODE 00004F12 - 00004F15 (0x4 bytes), align: 0
  Segment part 11.            Intra module refs:   __xdata_malloc
    -------------------------------------------------------------------------
<BANKED_CODE> 1 (was BANKED_CODE)
  Relative segment, address: CODE 00004F16 - 00004F1B (0x6 bytes), align: 0
  Segment part 12.            Intra module refs:   Segment part 11
                                                   __xdata_malloc
    -------------------------------------------------------------------------
<BANKED_CODE> 1 (was BANKED_CODE)
  Relative segment, address: CODE 00004F1C - 00004F1F (0x4 bytes), align: 0
  Segment part 13.            Intra module refs:   __xdata_malloc
    -------------------------------------------------------------------------
<BANKED_CODE> 1 (was BANKED_CODE)
  Relative segment, address: CODE 00004F20 - 00004F25 (0x6 bytes), align: 0
  Segment part 14.            Intra module refs:   Segment part 12
                                                   Segment part 13
                                                   __xdata_malloc
    -------------------------------------------------------------------------
<BANKED_CODE> 1 (was BANKED_CODE)
  Relative segment, address: CODE 00004F26 - 00004F2D (0x8 bytes), align: 0
  Segment part 15.            Intra module refs:   __xdata_malloc
    -------------------------------------------------------------------------
BANK_RELAYS
  Relative segment, address: CODE 000006DC - 000006E1 (0x6 bytes), align: 0
  Segment part 9.
           ENTRY                   ADDRESS         REF BY
           =====                   =======         ======
           __xdata_malloc::?relay
                                   000006DC        Array<uint32_t>::operator=(Array<uint32_t> const &) (input_bit_stream)
                                                   InputBitStream::SetBuffer(Array<uint8_t> const &) (input_bit_stream)
                                                   OutputBitStream::GetBuffer(uint32_t) (output_bit_stream)
                                                   OutputBitStream::OutputBitStream(uint32_t) (output_bit_stream)
                                                   operator new(unsigned int) (?newop_0)




                ****************************************
                *                                      *
                *      SEGMENTS IN ADDRESS ORDER       *
                *                                      *
                ****************************************


SEGMENT              SPACE    START ADDRESS   END ADDRESS     SIZE  TYPE  ALIGN
=======              =====    =============   ===========     ====  ====  =====
INTVEC               CODE          00000000 - 00000002           3   com    0
CSTART               CODE          00000003 - 00000089          87   rel    0
BIT_ID               CODE               0000008A                     dse    0
BDATA_ID             CODE               0000008A                     dse    0
DATA_ID              CODE               0000008A                     dse    0
PDATA_ID             CODE               0000008A                     dse    0
IDATA_ID             CODE               0000008A                     dse    0
IXDATA_ID            CODE               0000008A                     dse    0
XDATA_ID             CODE          0000008A - 00000561         4D8   rel    0
BANK_RELAYS          CODE          00000562 - 000006E1         180   rel    0
RCODE                CODE          000006E2 - 000014C6         DE5   rel    0
DIFUNCT              CODE               000014C7                     rel    0
<BANKED_CODE> 1      CODE          000014C7 - 0000586D        43A7   rel    0
REGISTERS            DATA          00000000 - 00000007           8   rel    0
VREG                 DATA          00000008 - 0000000F           8   rel    0
PSP                  DATA               00000010                     dse    0
XSP                  DATA          00000010 - 00000011           2   rel    0
BREG                 BIT        00000020.0  -  00000020.7        8   rel    0
XSTACK               XDATA         00000001 - 000001FF         1FF   rel    0
XDATA_Z              XDATA         00000200 - 000009DE         7DF   rel    0
XDATA_I              XDATA         000009DF - 00000EB6         4D8   rel    0
XDATA_HEAP           XDATA         00000EB7 - 00000FB5          FF   dse    0
ISTACK               IDATA         000000C0 - 000000FF          40   rel    0

                ****************************************
                *                                      *
                *        END OF CROSS REFERENCE        *
                *                                      *
                ****************************************

 22 638 bytes of CODE  memory
     18 bytes of DATA  memory
  4 021 bytes of XDATA memory
     64 bytes of IDATA memory
      8 bits  of BIT   memory

Errors: none
Warnings: none

